	.file	"sabd-enclave.c"
# GNU C11 (Ubuntu 7.5.0-3ubuntu1~18.04) version 7.5.0 (x86_64-linux-gnu)
#	compiled by GNU C version 7.5.0, GMP version 6.1.2, MPFR version 4.0.1, MPC version 1.1.0, isl version isl-0.19-GMP

# GGC heuristics: --param ggc-min-expand=100 --param ggc-min-heapsize=131072
# options passed:  -I include -I include/bearssl
# -I linux-sgx-sgx_2.1.3-g75dd558bdaff/common/inc
# -I linux-sgx-sgx_2.1.3-g75dd558bdaff/common/inc/tlibc
# -imultiarch x86_64-linux-gnu -D _DEFAULT_SOURCE -D __AFL_COMPILER=1
# -D FUZZING_BUILD_MODE_UNSAFE_FOR_PRODUCTION=1 src/sabd-enclave.c -m64
# -march=skylake -auxbase-strip src/sabd-enclave.c.s -g -ggdb -g -ggdb0 -g
# -O0 -O0 -O3 -Wall -Werror=all -Wextra -Wno-unused-parameter
# -Wno-missing-field-initializers -std=c11 -fstack-protector
# -fvisibility=hidden -fpie -fverbose-asm -funroll-loops -Wformat-security
# options enabled:  -faggressive-loop-optimizations -falign-labels
# -fasynchronous-unwind-tables -fauto-inc-dec -fbranch-count-reg
# -fcaller-saves -fchkp-check-incomplete-type -fchkp-check-read
# -fchkp-check-write -fchkp-instrument-calls -fchkp-narrow-bounds
# -fchkp-optimize -fchkp-store-bounds -fchkp-use-static-bounds
# -fchkp-use-static-const-bounds -fchkp-use-wrappers -fcode-hoisting
# -fcombine-stack-adjustments -fcommon -fcompare-elim -fcprop-registers
# -fcrossjumping -fcse-follow-jumps -fdefer-pop
# -fdelete-null-pointer-checks -fdevirtualize -fdevirtualize-speculatively
# -fdwarf2-cfi-asm -fearly-inlining -feliminate-unused-debug-types
# -fexpensive-optimizations -fforward-propagate -ffp-int-builtin-inexact
# -ffunction-cse -fgcse -fgcse-after-reload -fgcse-lm -fgnu-runtime
# -fgnu-unique -fguess-branch-probability -fhoist-adjacent-loads -fident
# -fif-conversion -fif-conversion2 -findirect-inlining -finline
# -finline-atomics -finline-functions -finline-functions-called-once
# -finline-small-functions -fipa-bit-cp -fipa-cp -fipa-cp-clone -fipa-icf
# -fipa-icf-functions -fipa-icf-variables -fipa-profile -fipa-pure-const
# -fipa-ra -fipa-reference -fipa-sra -fipa-vrp -fira-hoist-pressure
# -fira-share-save-slots -fira-share-spill-slots
# -fisolate-erroneous-paths-dereference -fivopts -fkeep-static-consts
# -fleading-underscore -flifetime-dse -flra-remat -flto-odr-type-merging
# -fmath-errno -fmerge-constants -fmerge-debug-strings
# -fmove-loop-invariants -fomit-frame-pointer -foptimize-sibling-calls
# -foptimize-strlen -fpartial-inlining -fpeel-loops -fpeephole -fpeephole2
# -fpic -fpie -fplt -fpredictive-commoning -fprefetch-loop-arrays -free
# -freg-struct-return -frename-registers -freorder-blocks
# -freorder-functions -frerun-cse-after-loop
# -fsched-critical-path-heuristic -fsched-dep-count-heuristic
# -fsched-group-heuristic -fsched-interblock -fsched-last-insn-heuristic
# -fsched-rank-heuristic -fsched-spec -fsched-spec-insn-heuristic
# -fsched-stalled-insns-dep -fschedule-fusion -fschedule-insns2
# -fsemantic-interposition -fshow-column -fshrink-wrap
# -fshrink-wrap-separate -fsigned-zeros -fsplit-ivs-in-unroller
# -fsplit-loops -fsplit-paths -fsplit-wide-types -fssa-backprop
# -fssa-phiopt -fstack-protector -fstdarg-opt -fstore-merging
# -fstrict-aliasing -fstrict-overflow -fstrict-volatile-bitfields
# -fsync-libcalls -fthread-jumps -ftoplevel-reorder -ftrapping-math
# -ftree-bit-ccp -ftree-builtin-call-dce -ftree-ccp -ftree-ch
# -ftree-coalesce-vars -ftree-copy-prop -ftree-cselim -ftree-dce
# -ftree-dominator-opts -ftree-dse -ftree-forwprop -ftree-fre
# -ftree-loop-distribute-patterns -ftree-loop-if-convert -ftree-loop-im
# -ftree-loop-ivcanon -ftree-loop-optimize -ftree-loop-vectorize
# -ftree-parallelize-loops= -ftree-partial-pre -ftree-phiprop -ftree-pre
# -ftree-pta -ftree-reassoc -ftree-scev-cprop -ftree-sink
# -ftree-slp-vectorize -ftree-slsr -ftree-sra -ftree-switch-conversion
# -ftree-tail-merge -ftree-ter -ftree-vrp -funit-at-a-time -funroll-loops
# -funswitch-loops -funwind-tables -fvar-tracking
# -fvar-tracking-assignments -fverbose-asm -fweb -fzero-initialized-in-bss
# -m128bit-long-double -m64 -m80387 -madx -maes -malign-stringops -mavx
# -mavx2 -mbmi -mbmi2 -mclflushopt -mcx16 -mf16c -mfancy-math-387 -mfma
# -mfp-ret-in-387 -mfsgsbase -mfxsr -mglibc -mhle -mieee-fp
# -mlong-double-80 -mlzcnt -mmmx -mmovbe -mpclmul -mpopcnt -mprfchw
# -mpush-args -mrdrnd -mrdseed -mred-zone -msahf -msse -msse2 -msse3 -msse4
# -msse4.1 -msse4.2 -mssse3 -mstv -mtls-direct-seg-refs -mvzeroupper
# -mxsave -mxsavec -mxsaveopt -mxsaves

	.text
.Ltext0:
	.p2align 4,,15
	.globl	sabd_lookup_hash
	.hidden	sabd_lookup_hash
	.type	sabd_lookup_hash, @function
sabd_lookup_hash:
.LFB5015:
	.file 1 "src/sabd-enclave.c"
	.loc 1 106 0
	.cfi_startproc
.LVL0:
	leaq	8(%rsp), %r10	#,
	.cfi_def_cfa 10, 0
	andq	$-32, %rsp	#,
	pushq	-8(%r10)	#
	pushq	%rbp	#
	.cfi_escape 0x10,0x6,0x2,0x76,0
	movq	%rsp, %rbp	#,
	pushq	%r15	#
	pushq	%r14	#
	pushq	%r13	#
	pushq	%r12	#
	pushq	%r10	#
	.cfi_escape 0xf,0x3,0x76,0x58,0x6
	.cfi_escape 0x10,0xf,0x2,0x76,0x78
	.cfi_escape 0x10,0xe,0x2,0x76,0x70
	.cfi_escape 0x10,0xd,0x2,0x76,0x68
	.cfi_escape 0x10,0xc,0x2,0x76,0x60
	pushq	%rbx	#
	subq	$288, %rsp	#,
	.cfi_escape 0x10,0x3,0x2,0x76,0x50
# src/sabd-enclave.c:110:   uint32_t hash_table_order = likely(ab_jid_count > 1)? _bit_scan_reverse(ab_jid_count - 1) + 1 : 0;
	.loc 1 110 0
	cmpl	$1, %ecx	#, ab_jid_count
	jbe	.L122	#,
.LVL1:
# src/sabd-enclave.c:110:   uint32_t hash_table_order = likely(ab_jid_count > 1)? _bit_scan_reverse(ab_jid_count - 1) + 1 : 0;
	.loc 1 110 0 is_stmt 0 discriminator 1
	leal	-1(%rcx), %ebx	#, tmp554
.LVL2:
.LBB873:
.LBB874:
# /usr/lib/gcc/x86_64-linux-gnu/7/include/ia32intrin.h:41:   return __builtin_ia32_bsrsi (__X);
	.file 2 "/usr/lib/gcc/x86_64-linux-gnu/7/include/ia32intrin.h"
	.loc 2 41 0 is_stmt 1 discriminator 1
	bsrl	%ebx, %ebx	# tmp554, tmp553
.LVL3:
.LBE874:
.LBE873:
# src/sabd-enclave.c:110:   uint32_t hash_table_order = likely(ab_jid_count > 1)? _bit_scan_reverse(ab_jid_count - 1) + 1 : 0;
	.loc 1 110 0 discriminator 1
	addl	$1, %ebx	#, iftmp.0_98
.LVL4:
# src/sabd-enclave.c:116:   if (unlikely(hash_table_order > SABD_MAX_HASH_TABLE_ORDER)) {
	.loc 1 116 0 discriminator 1
	cmpl	$13, %ebx	#, iftmp.0_98
	ja	.L33	#,
	movl	$12, %r9d	#, tmp558
	movl	$1, %eax	#, tmp556
	shlx	%ebx, %r9d, %r11d	# iftmp.0_98, tmp558, tmp559
	salq	$3, %r11	#, _730
	shlx	%ebx, %eax, %r15d	# iftmp.0_98, tmp556, _727
	movq	%r11, -288(%rbp)	# _730, %sfp
.LVL5:
.L4:
	movq	%rsi, -312(%rbp)	# in_jid_count, %sfp
# src/sabd-enclave.c:127:   jid_t *hashed_ab_jids = memalign(CACHE_LINE_SIZE, hashed_ab_jids_size);
	.loc 1 127 0
	movq	-288(%rbp), %rsi	# %sfp,
.LVL6:
	movq	%rdi, -304(%rbp)	# in_jids, %sfp
.LVL7:
	movl	$64, %edi	#,
.LVL8:
	movq	%r8, -328(%rbp)	# in_ab_jids_result, %sfp
	movl	%ecx, -112(%rbp)	# ab_jid_count, %sfp
	movq	%rdx, -80(%rbp)	# ab_jids, %sfp
	call	memalign@PLT	#
.LVL9:
	movq	%rax, %r12	#, hashed_ab_jids
.LVL10:
# src/sabd-enclave.c:128:   if (unlikely(hashed_ab_jids == NULL)) {
	.loc 1 128 0
	testq	%rax, %rax	# hashed_ab_jids
	je	.L34	#,
# src/sabd-enclave.c:132:   size_t in_hashed_ab_jids_result_bits_size = hash_table_slot_count * sizeof(uint16_t);
	.loc 1 132 0
	movl	%r15d, %r13d	# _727, _727
# src/sabd-enclave.c:133:   volatile uint16_t *in_hashed_ab_jids_result_bits = memalign(CACHE_LINE_SIZE, in_hashed_ab_jids_result_bits_size);
	.loc 1 133 0
	movl	$64, %edi	#,
# src/sabd-enclave.c:132:   size_t in_hashed_ab_jids_result_bits_size = hash_table_slot_count * sizeof(uint16_t);
	.loc 1 132 0
	addq	%r13, %r13	# in_hashed_ab_jids_result_bits_size
.LVL11:
# src/sabd-enclave.c:133:   volatile uint16_t *in_hashed_ab_jids_result_bits = memalign(CACHE_LINE_SIZE, in_hashed_ab_jids_result_bits_size);
	.loc 1 133 0
	movq	%r13, %rsi	# in_hashed_ab_jids_result_bits_size,
	call	memalign@PLT	#
.LVL12:
# src/sabd-enclave.c:135:   if (unlikely(in_hashed_ab_jids_result_bits == NULL)) {
	.loc 1 135 0
	movq	-80(%rbp), %rcx	# %sfp, ab_jids
	movl	-112(%rbp), %esi	# %sfp, ab_jid_count
	testq	%rax, %rax	# in_hashed_ab_jids_result_bits
# src/sabd-enclave.c:133:   volatile uint16_t *in_hashed_ab_jids_result_bits = memalign(CACHE_LINE_SIZE, in_hashed_ab_jids_result_bits_size);
	.loc 1 133 0
	movq	%rax, -280(%rbp)	# in_hashed_ab_jids_result_bits, %sfp
.LVL13:
# src/sabd-enclave.c:135:   if (unlikely(in_hashed_ab_jids_result_bits == NULL)) {
	.loc 1 135 0
	je	.L123	#,
	movq	%rax, %rdi	# in_hashed_ab_jids_result_bits,
	movl	%esi, -80(%rbp)	# ab_jid_count, %sfp
.LVL14:
# src/sabd-enclave.c:139:   memset_s(in_hashed_ab_jids_result_bits, in_hashed_ab_jids_result_bits_size, 0, in_hashed_ab_jids_result_bits_size);
	.loc 1 139 0
	xorl	%edx, %edx	#
	movq	%r13, %rsi	# in_hashed_ab_jids_result_bits_size,
	movq	%rcx, -112(%rbp)	# ab_jids, %sfp
.LVL15:
	movq	%r13, %rcx	# in_hashed_ab_jids_result_bits_size,
.LBB875:
.LBB876:
.LBB877:
.LBB878:
.LBB879:
.LBB880:
.LBB881:
.LBB882:
# src/sabd-enclave.c:101:   return _mm_cvtsi128_si32(hash) & ((1 << hash_table_order) - 1);
	.loc 1 101 0
	movl	$1, %r14d	#, tmp561
.LBE882:
.LBE881:
.LBE880:
.LBE879:
.LBE878:
.LBE877:
.LBE876:
.LBE875:
# src/sabd-enclave.c:139:   memset_s(in_hashed_ab_jids_result_bits, in_hashed_ab_jids_result_bits_size, 0, in_hashed_ab_jids_result_bits_size);
	.loc 1 139 0
	call	memset_s@PLT	#
.LVL16:
# src/sabd-enclave.c:142:   memset_s(in_ab_jids_result, ab_jid_count, 0xFF, ab_jid_count);
	.loc 1 142 0
	movl	-80(%rbp), %esi	# %sfp,
	movl	$255, %edx	#,
	movq	-328(%rbp), %rdi	# %sfp,
	movq	%rsi, %rcx	# _22,
	call	memset_s@PLT	#
.LVL17:
# src/sabd-enclave.c:145:   memset_s(hashed_ab_jids, hashed_ab_jids_size, 0, hashed_ab_jids_size);
	.loc 1 145 0
	movq	-288(%rbp), %rsi	# %sfp, _730
	movq	%r12, %rdi	# hashed_ab_jids,
	xorl	%edx, %edx	#
	movq	%rsi, %rcx	# _730,
	call	memset_s@PLT	#
.LVL18:
	movq	-112(%rbp), %r10	# %sfp, ab_jids
.LBB1231:
.LBB1228:
.LBB971:
.LBB967:
.LBB956:
.LBB954:
.LBB916:
.LBB910:
# src/sabd-enclave.c:101:   return _mm_cvtsi128_si32(hash) & ((1 << hash_table_order) - 1);
	.loc 1 101 0
	shlx	%ebx, %r14d, %edi	# iftmp.0_98, tmp561, _339
	movl	-80(%rbp), %r13d	# %sfp, ab_jid_count
.LVL19:
	vmovapd	.LC6(%rip), %ymm13	#, tmp907
	movq	%r12, %r9	# hashed_ab_jids, hashed_ab_jids
	leal	-1(%rdi), %r14d	#, _361
	movl	$128, -292(%rbp)	#, %sfp
	movq	%r10, -320(%rbp)	# ivtmp.105, %sfp
	leal	-1(%r13), %ebx	#, tmp563
.LBE910:
.LBE916:
.LBE954:
.LBE956:
# src/sabd-enclave.c:171:       register __m256i chain_block_masks[] = {
	.loc 1 171 0
	vmovdqa	.LC0(%rip), %ymm15	#, chain_block_masks$1
	leaq	-64(%rbp), %r8	#, tmp898
	vmovdqa	.LC1(%rip), %ymm14	#, chain_block_masks$2
	vmovdqa	.LC2(%rip), %ymm12	#, chain_block_masks$0
	leaq	8(%r10,%rbx,8), %rbx	#, _697
	movq	%r10, %r12	# ab_jids, ab_jids
.LVL20:
.L6:
.LBE967:
.LBE971:
.LBB972:
.LBB973:
.LBB974:
# /usr/lib/gcc/x86_64-linux-gnu/7/include/immintrin.h:208:   return __builtin_ia32_rdrand64_step (__P);
	.file 3 "/usr/lib/gcc/x86_64-linux-gnu/7/include/immintrin.h"
	.loc 3 208 0
	rdrand	%rax	# tmp629
	movl	$1, %r11d	#, tmp630
	movq	%rax, (%r8)	# tmp629,
	cmovc	%r11d, %eax	# tmp629,, tmp630, _831
.LVL21:
.LBE974:
.LBE973:
# src/sabd-enclave.c:155:       if (likely(_rdrand64_step(&hash_salt_64[0])) && likely(_rdrand64_step(&hash_salt_64[1]))) {
	.loc 1 155 0
	testl	%eax, %eax	# _831
	je	.L16	#,
.LVL22:
.LBB984:
.LBB985:
# /usr/lib/gcc/x86_64-linux-gnu/7/include/immintrin.h:208:   return __builtin_ia32_rdrand64_step (__P);
	.loc 3 208 0
	rdrand	%rdx	# tmp633
	movq	%rdx, 8(%r8)	# tmp633,
	cmovc	%r11d, %edx	# tmp633,, tmp630, _838
.LVL23:
.LBE985:
.LBE984:
# src/sabd-enclave.c:155:       if (likely(_rdrand64_step(&hash_salt_64[0])) && likely(_rdrand64_step(&hash_salt_64[1]))) {
	.loc 1 155 0
	testl	%edx, %edx	# _838
	je	.L16	#,
.L8:
.LVL24:
.LBE972:
.LBB1013:
.LBB1014:
.LBB1015:
.LBB1016:
# /usr/lib/gcc/x86_64-linux-gnu/7/include/emmintrin.h:592:   return __extension__ (__m128i)(__v2di){ __q0, __q1 };
	.file 4 "/usr/lib/gcc/x86_64-linux-gnu/7/include/emmintrin.h"
	.loc 4 592 0
	vmovq	-56(%rbp), %xmm6	# MEM[(uint64_t *)&hash_salt_64 + 8B], tmp1092
	movq	%r9, %r10	# hashed_ab_jids, ivtmp.118
.LBE1016:
.LBE1015:
.LBE1014:
.LBE1013:
.LBB1223:
# src/sabd-enclave.c:167:     for (hash_slot_idx_t hash_slot_idx = 0; likely(hash_slot_idx < hash_table_slot_count); hash_slot_idx++) {
	.loc 1 167 0
	xorl	%edi, %edi	# hash_slot_idx
.LBE1223:
# src/sabd-enclave.c:166:     bool any_hash_slots_overflowed = false;
	.loc 1 166 0
	xorl	%r11d, %r11d	# any_hash_slots_overflowed
.LBB1224:
.LBB1222:
.LBB1019:
.LBB1017:
# /usr/lib/gcc/x86_64-linux-gnu/7/include/emmintrin.h:592:   return __extension__ (__m128i)(__v2di){ __q0, __q1 };
	.loc 4 592 0
	vpinsrq	$1, -64(%rbp), %xmm6, %xmm3	# MEM[(uint64_t *)&hash_salt_64], tmp1092, tmp772
.LBE1017:
.LBE1019:
.LBB1020:
.LBB1021:
.LBB1022:
# /usr/lib/gcc/x86_64-linux-gnu/7/include/emmintrin.h:1193:   return (__m128i)__builtin_ia32_pslldqi128 (__A, __N * 8);
	.loc 4 1193 0
	vpslldq	$4, %xmm3, %xmm0	#, tmp1094, tmp777
.LBE1022:
.LBE1021:
.LBE1020:
.LBB1037:
.LBB1038:
# /usr/lib/gcc/x86_64-linux-gnu/7/include/wmmintrin.h:89:   return (__m128i) __builtin_ia32_aeskeygenassist128 ((__v2di)__X, __C);
	.file 5 "/usr/lib/gcc/x86_64-linux-gnu/7/include/wmmintrin.h"
	.loc 5 89 0
	vaeskeygenassist	$1, %xmm3, %xmm2	#, tmp772, tmp775
.LBE1038:
.LBE1037:
.LBB1039:
.LBB1018:
# /usr/lib/gcc/x86_64-linux-gnu/7/include/emmintrin.h:592:   return __extension__ (__m128i)(__v2di){ __q0, __q1 };
	.loc 4 592 0
	vmovaps	%xmm3, -272(%rbp)	# tmp772, %sfp
.LVL25:
.LBE1018:
.LBE1039:
.LBB1040:
.LBB1023:
.LBB1024:
# /usr/lib/gcc/x86_64-linux-gnu/7/include/emmintrin.h:1293:   return (__m128i) ((__v2du)__A ^ (__v2du)__B);
	.loc 4 1293 0
	vpxor	%xmm3, %xmm0, %xmm4	# tmp772, tmp777, _384
.LVL26:
.LBE1024:
.LBE1023:
.LBB1025:
.LBB1026:
# /usr/lib/gcc/x86_64-linux-gnu/7/include/emmintrin.h:1422:   return (__m128i)__builtin_ia32_pshufd ((__v4si)__A, __mask);
	.loc 4 1422 0
	vpshufd	$255, %xmm2, %xmm9	#, tmp775, tmp783
.LBE1026:
.LBE1025:
.LBB1027:
.LBB1028:
# /usr/lib/gcc/x86_64-linux-gnu/7/include/emmintrin.h:1193:   return (__m128i)__builtin_ia32_pslldqi128 (__A, __N * 8);
	.loc 4 1193 0
	vpslldq	$4, %xmm4, %xmm1	#, _384, tmp779
.LVL27:
.LBE1028:
.LBE1027:
.LBB1029:
.LBB1030:
# /usr/lib/gcc/x86_64-linux-gnu/7/include/emmintrin.h:1293:   return (__m128i) ((__v2du)__A ^ (__v2du)__B);
	.loc 4 1293 0
	vpxor	%xmm1, %xmm4, %xmm5	# tmp779, _384, _388
.LVL28:
.LBE1030:
.LBE1029:
.LBB1031:
.LBB1032:
# /usr/lib/gcc/x86_64-linux-gnu/7/include/emmintrin.h:1193:   return (__m128i)__builtin_ia32_pslldqi128 (__A, __N * 8);
	.loc 4 1193 0
	vpslldq	$4, %xmm5, %xmm8	#, _388, tmp781
.LVL29:
.LBE1032:
.LBE1031:
.LBB1033:
.LBB1034:
# /usr/lib/gcc/x86_64-linux-gnu/7/include/emmintrin.h:1293:   return (__m128i) ((__v2du)__A ^ (__v2du)__B);
	.loc 4 1293 0
	vpxor	%xmm9, %xmm8, %xmm10	# tmp783, tmp781, tmp785
	vpxor	%xmm5, %xmm10, %xmm11	# _388, tmp785, _397
.LBE1034:
.LBE1033:
.LBE1040:
.LBB1041:
.LBB1042:
.LBB1043:
# /usr/lib/gcc/x86_64-linux-gnu/7/include/emmintrin.h:1193:   return (__m128i)__builtin_ia32_pslldqi128 (__A, __N * 8);
	.loc 4 1193 0
	vpslldq	$4, %xmm11, %xmm2	#, tmp1098, tmp788
.LBE1043:
.LBE1042:
.LBE1041:
.LBB1058:
.LBB1059:
# /usr/lib/gcc/x86_64-linux-gnu/7/include/wmmintrin.h:89:   return (__m128i) __builtin_ia32_aeskeygenassist128 ((__v2di)__X, __C);
	.loc 5 89 0
	vaeskeygenassist	$2, %xmm11, %xmm3	#, _397, tmp786
.LVL30:
.LBE1059:
.LBE1058:
.LBB1060:
.LBB1036:
.LBB1035:
# /usr/lib/gcc/x86_64-linux-gnu/7/include/emmintrin.h:1293:   return (__m128i) ((__v2du)__A ^ (__v2du)__B);
	.loc 4 1293 0
	vmovaps	%xmm11, -80(%rbp)	# _397, %sfp
.LVL31:
.LBE1035:
.LBE1036:
.LBE1060:
.LBB1061:
.LBB1044:
.LBB1045:
	vpxor	%xmm11, %xmm2, %xmm7	# _397, tmp788, _401
.LVL32:
.LBE1045:
.LBE1044:
.LBB1046:
.LBB1047:
# /usr/lib/gcc/x86_64-linux-gnu/7/include/emmintrin.h:1422:   return (__m128i)__builtin_ia32_pshufd ((__v4si)__A, __mask);
	.loc 4 1422 0
	vpshufd	$255, %xmm3, %xmm5	#, tmp786, tmp794
.LBE1047:
.LBE1046:
.LBB1048:
.LBB1049:
# /usr/lib/gcc/x86_64-linux-gnu/7/include/emmintrin.h:1193:   return (__m128i)__builtin_ia32_pslldqi128 (__A, __N * 8);
	.loc 4 1193 0
	vpslldq	$4, %xmm7, %xmm0	#, _401, tmp790
.LVL33:
.LBE1049:
.LBE1048:
.LBB1050:
.LBB1051:
# /usr/lib/gcc/x86_64-linux-gnu/7/include/emmintrin.h:1293:   return (__m128i) ((__v2du)__A ^ (__v2du)__B);
	.loc 4 1293 0
	vpxor	%xmm0, %xmm7, %xmm4	# tmp790, _401, _405
.LVL34:
.LBE1051:
.LBE1050:
.LBB1052:
.LBB1053:
# /usr/lib/gcc/x86_64-linux-gnu/7/include/emmintrin.h:1193:   return (__m128i)__builtin_ia32_pslldqi128 (__A, __N * 8);
	.loc 4 1193 0
	vpslldq	$4, %xmm4, %xmm1	#, _405, tmp792
.LVL35:
.LBE1053:
.LBE1052:
.LBB1054:
.LBB1055:
# /usr/lib/gcc/x86_64-linux-gnu/7/include/emmintrin.h:1293:   return (__m128i) ((__v2du)__A ^ (__v2du)__B);
	.loc 4 1293 0
	vpxor	%xmm5, %xmm1, %xmm8	# tmp794, tmp792, tmp796
	vpxor	%xmm4, %xmm8, %xmm9	# _405, tmp796, _414
.LBE1055:
.LBE1054:
.LBE1061:
.LBB1062:
.LBB1063:
.LBB1064:
# /usr/lib/gcc/x86_64-linux-gnu/7/include/emmintrin.h:1193:   return (__m128i)__builtin_ia32_pslldqi128 (__A, __N * 8);
	.loc 4 1193 0
	vpslldq	$4, %xmm9, %xmm3	#, tmp1102, tmp799
.LBE1064:
.LBE1063:
.LBE1062:
.LBB1079:
.LBB1080:
# /usr/lib/gcc/x86_64-linux-gnu/7/include/wmmintrin.h:89:   return (__m128i) __builtin_ia32_aeskeygenassist128 ((__v2di)__X, __C);
	.loc 5 89 0
	vaeskeygenassist	$4, %xmm9, %xmm10	#, _414, tmp797
.LBE1080:
.LBE1079:
.LBB1081:
.LBB1057:
.LBB1056:
# /usr/lib/gcc/x86_64-linux-gnu/7/include/emmintrin.h:1293:   return (__m128i) ((__v2du)__A ^ (__v2du)__B);
	.loc 4 1293 0
	vmovaps	%xmm9, -112(%rbp)	# _414, %sfp
.LVL36:
.LBE1056:
.LBE1057:
.LBE1081:
.LBB1082:
.LBB1065:
.LBB1066:
	vpxor	%xmm9, %xmm3, %xmm6	# _414, tmp799, _418
.LVL37:
.LBE1066:
.LBE1065:
.LBB1067:
.LBB1068:
# /usr/lib/gcc/x86_64-linux-gnu/7/include/emmintrin.h:1422:   return (__m128i)__builtin_ia32_pshufd ((__v4si)__A, __mask);
	.loc 4 1422 0
	vpshufd	$255, %xmm10, %xmm4	#, tmp797, tmp805
.LBE1068:
.LBE1067:
.LBB1069:
.LBB1070:
# /usr/lib/gcc/x86_64-linux-gnu/7/include/emmintrin.h:1193:   return (__m128i)__builtin_ia32_pslldqi128 (__A, __N * 8);
	.loc 4 1193 0
	vpslldq	$4, %xmm6, %xmm2	#, _418, tmp801
.LVL38:
.LBE1070:
.LBE1069:
.LBB1071:
.LBB1072:
# /usr/lib/gcc/x86_64-linux-gnu/7/include/emmintrin.h:1293:   return (__m128i) ((__v2du)__A ^ (__v2du)__B);
	.loc 4 1293 0
	vpxor	%xmm2, %xmm6, %xmm7	# tmp801, _418, _422
.LVL39:
.LBE1072:
.LBE1071:
.LBB1073:
.LBB1074:
# /usr/lib/gcc/x86_64-linux-gnu/7/include/emmintrin.h:1193:   return (__m128i)__builtin_ia32_pslldqi128 (__A, __N * 8);
	.loc 4 1193 0
	vpslldq	$4, %xmm7, %xmm0	#, _422, tmp803
.LVL40:
.LBE1074:
.LBE1073:
.LBB1075:
.LBB1076:
# /usr/lib/gcc/x86_64-linux-gnu/7/include/emmintrin.h:1293:   return (__m128i) ((__v2du)__A ^ (__v2du)__B);
	.loc 4 1293 0
	vpxor	%xmm4, %xmm0, %xmm1	# tmp805, tmp803, tmp807
	vpxor	%xmm7, %xmm1, %xmm5	# _422, tmp807, _431
.LBE1076:
.LBE1075:
.LBE1082:
.LBB1083:
.LBB1084:
.LBB1085:
# /usr/lib/gcc/x86_64-linux-gnu/7/include/emmintrin.h:1193:   return (__m128i)__builtin_ia32_pslldqi128 (__A, __N * 8);
	.loc 4 1193 0
	vpslldq	$4, %xmm5, %xmm10	#, tmp1106, tmp810
.LBE1085:
.LBE1084:
.LBE1083:
.LBB1100:
.LBB1101:
# /usr/lib/gcc/x86_64-linux-gnu/7/include/wmmintrin.h:89:   return (__m128i) __builtin_ia32_aeskeygenassist128 ((__v2di)__X, __C);
	.loc 5 89 0
	vaeskeygenassist	$8, %xmm5, %xmm8	#, _431, tmp808
.LBE1101:
.LBE1100:
.LBB1102:
.LBB1078:
.LBB1077:
# /usr/lib/gcc/x86_64-linux-gnu/7/include/emmintrin.h:1293:   return (__m128i) ((__v2du)__A ^ (__v2du)__B);
	.loc 4 1293 0
	vmovaps	%xmm5, -144(%rbp)	# _431, %sfp
.LVL41:
.LBE1077:
.LBE1078:
.LBE1102:
.LBB1103:
.LBB1086:
.LBB1087:
	vpxor	%xmm5, %xmm10, %xmm11	# _431, tmp810, _435
.LVL42:
.LBE1087:
.LBE1086:
.LBB1088:
.LBB1089:
# /usr/lib/gcc/x86_64-linux-gnu/7/include/emmintrin.h:1422:   return (__m128i)__builtin_ia32_pshufd ((__v4si)__A, __mask);
	.loc 4 1422 0
	vpshufd	$255, %xmm8, %xmm2	#, tmp808, tmp816
.LBE1089:
.LBE1088:
.LBB1090:
.LBB1091:
# /usr/lib/gcc/x86_64-linux-gnu/7/include/emmintrin.h:1193:   return (__m128i)__builtin_ia32_pslldqi128 (__A, __N * 8);
	.loc 4 1193 0
	vpslldq	$4, %xmm11, %xmm3	#, _435, tmp812
.LVL43:
.LBE1091:
.LBE1090:
.LBB1092:
.LBB1093:
# /usr/lib/gcc/x86_64-linux-gnu/7/include/emmintrin.h:1293:   return (__m128i) ((__v2du)__A ^ (__v2du)__B);
	.loc 4 1293 0
	vpxor	%xmm3, %xmm11, %xmm6	# tmp812, _435, _439
.LVL44:
.LBE1093:
.LBE1092:
.LBB1094:
.LBB1095:
# /usr/lib/gcc/x86_64-linux-gnu/7/include/emmintrin.h:1193:   return (__m128i)__builtin_ia32_pslldqi128 (__A, __N * 8);
	.loc 4 1193 0
	vpslldq	$4, %xmm6, %xmm7	#, _439, tmp814
.LVL45:
.LBE1095:
.LBE1094:
.LBB1096:
.LBB1097:
# /usr/lib/gcc/x86_64-linux-gnu/7/include/emmintrin.h:1293:   return (__m128i) ((__v2du)__A ^ (__v2du)__B);
	.loc 4 1293 0
	vpxor	%xmm2, %xmm7, %xmm0	# tmp816, tmp814, tmp818
	vpxor	%xmm6, %xmm0, %xmm4	# _439, tmp818, _448
.LBE1097:
.LBE1096:
.LBE1103:
.LBB1104:
.LBB1105:
.LBB1106:
# /usr/lib/gcc/x86_64-linux-gnu/7/include/emmintrin.h:1193:   return (__m128i)__builtin_ia32_pslldqi128 (__A, __N * 8);
	.loc 4 1193 0
	vpslldq	$4, %xmm4, %xmm8	#, tmp1110, tmp821
.LBE1106:
.LBE1105:
.LBE1104:
.LBB1121:
.LBB1122:
# /usr/lib/gcc/x86_64-linux-gnu/7/include/wmmintrin.h:89:   return (__m128i) __builtin_ia32_aeskeygenassist128 ((__v2di)__X, __C);
	.loc 5 89 0
	vaeskeygenassist	$16, %xmm4, %xmm5	#, _448, tmp819
.LBE1122:
.LBE1121:
.LBB1123:
.LBB1099:
.LBB1098:
# /usr/lib/gcc/x86_64-linux-gnu/7/include/emmintrin.h:1293:   return (__m128i) ((__v2du)__A ^ (__v2du)__B);
	.loc 4 1293 0
	vmovaps	%xmm4, -176(%rbp)	# _448, %sfp
.LVL46:
.LBE1098:
.LBE1099:
.LBE1123:
.LBB1124:
.LBB1107:
.LBB1108:
	vpxor	%xmm4, %xmm8, %xmm9	# _448, tmp821, _452
.LVL47:
.LBE1108:
.LBE1107:
.LBB1109:
.LBB1110:
# /usr/lib/gcc/x86_64-linux-gnu/7/include/emmintrin.h:1422:   return (__m128i)__builtin_ia32_pshufd ((__v4si)__A, __mask);
	.loc 4 1422 0
	vpshufd	$255, %xmm5, %xmm6	#, tmp819, tmp827
.LBE1110:
.LBE1109:
.LBB1111:
.LBB1112:
# /usr/lib/gcc/x86_64-linux-gnu/7/include/emmintrin.h:1193:   return (__m128i)__builtin_ia32_pslldqi128 (__A, __N * 8);
	.loc 4 1193 0
	vpslldq	$4, %xmm9, %xmm10	#, _452, tmp823
.LVL48:
.LBE1112:
.LBE1111:
.LBB1113:
.LBB1114:
# /usr/lib/gcc/x86_64-linux-gnu/7/include/emmintrin.h:1293:   return (__m128i) ((__v2du)__A ^ (__v2du)__B);
	.loc 4 1293 0
	vpxor	%xmm10, %xmm9, %xmm11	# tmp823, _452, _456
.LVL49:
.LBE1114:
.LBE1113:
.LBB1115:
.LBB1116:
# /usr/lib/gcc/x86_64-linux-gnu/7/include/emmintrin.h:1193:   return (__m128i)__builtin_ia32_pslldqi128 (__A, __N * 8);
	.loc 4 1193 0
	vpslldq	$4, %xmm11, %xmm3	#, _456, tmp825
.LVL50:
.LBE1116:
.LBE1115:
.LBB1117:
.LBB1118:
# /usr/lib/gcc/x86_64-linux-gnu/7/include/emmintrin.h:1293:   return (__m128i) ((__v2du)__A ^ (__v2du)__B);
	.loc 4 1293 0
	vpxor	%xmm6, %xmm3, %xmm7	# tmp827, tmp825, tmp829
	vpxor	%xmm11, %xmm7, %xmm4	# _456, tmp829, _465
.LBE1118:
.LBE1117:
.LBE1124:
.LBB1125:
.LBB1126:
.LBB1127:
# /usr/lib/gcc/x86_64-linux-gnu/7/include/emmintrin.h:1193:   return (__m128i)__builtin_ia32_pslldqi128 (__A, __N * 8);
	.loc 4 1193 0
	vpslldq	$4, %xmm4, %xmm5	#, tmp1114, tmp832
.LBE1127:
.LBE1126:
.LBE1125:
.LBB1142:
.LBB1143:
# /usr/lib/gcc/x86_64-linux-gnu/7/include/wmmintrin.h:89:   return (__m128i) __builtin_ia32_aeskeygenassist128 ((__v2di)__X, __C);
	.loc 5 89 0
	vaeskeygenassist	$32, %xmm4, %xmm2	#, _465, tmp830
.LBE1143:
.LBE1142:
.LBB1144:
.LBB1120:
.LBB1119:
# /usr/lib/gcc/x86_64-linux-gnu/7/include/emmintrin.h:1293:   return (__m128i) ((__v2du)__A ^ (__v2du)__B);
	.loc 4 1293 0
	vmovaps	%xmm4, -208(%rbp)	# _465, %sfp
.LVL51:
.LBE1119:
.LBE1120:
.LBE1144:
.LBB1145:
.LBB1128:
.LBB1129:
	vpxor	%xmm4, %xmm5, %xmm8	# _465, tmp832, _469
.LVL52:
.LBE1129:
.LBE1128:
.LBB1130:
.LBB1131:
# /usr/lib/gcc/x86_64-linux-gnu/7/include/emmintrin.h:1422:   return (__m128i)__builtin_ia32_pshufd ((__v4si)__A, __mask);
	.loc 4 1422 0
	vpshufd	$255, %xmm2, %xmm11	#, tmp830, tmp838
.LBE1131:
.LBE1130:
.LBB1132:
.LBB1133:
# /usr/lib/gcc/x86_64-linux-gnu/7/include/emmintrin.h:1193:   return (__m128i)__builtin_ia32_pslldqi128 (__A, __N * 8);
	.loc 4 1193 0
	vpslldq	$4, %xmm8, %xmm1	#, _469, tmp834
.LVL53:
.LBE1133:
.LBE1132:
.LBB1134:
.LBB1135:
# /usr/lib/gcc/x86_64-linux-gnu/7/include/emmintrin.h:1293:   return (__m128i) ((__v2du)__A ^ (__v2du)__B);
	.loc 4 1293 0
	vpxor	%xmm1, %xmm8, %xmm9	# tmp834, _469, _473
.LVL54:
.LBE1135:
.LBE1134:
.LBB1136:
.LBB1137:
# /usr/lib/gcc/x86_64-linux-gnu/7/include/emmintrin.h:1193:   return (__m128i)__builtin_ia32_pslldqi128 (__A, __N * 8);
	.loc 4 1193 0
	vpslldq	$4, %xmm9, %xmm10	#, _473, tmp836
.LVL55:
.LBE1137:
.LBE1136:
.LBB1138:
.LBB1139:
# /usr/lib/gcc/x86_64-linux-gnu/7/include/emmintrin.h:1293:   return (__m128i) ((__v2du)__A ^ (__v2du)__B);
	.loc 4 1293 0
	vpxor	%xmm11, %xmm10, %xmm3	# tmp838, tmp836, tmp840
	vpxor	%xmm9, %xmm3, %xmm6	# _473, tmp840, _482
.LBE1139:
.LBE1138:
.LBE1145:
.LBB1146:
.LBB1147:
.LBB1148:
# /usr/lib/gcc/x86_64-linux-gnu/7/include/emmintrin.h:1193:   return (__m128i)__builtin_ia32_pslldqi128 (__A, __N * 8);
	.loc 4 1193 0
	vpslldq	$4, %xmm6, %xmm2	#, tmp1118, tmp843
.LBE1148:
.LBE1147:
.LBE1146:
.LBB1163:
.LBB1164:
# /usr/lib/gcc/x86_64-linux-gnu/7/include/wmmintrin.h:89:   return (__m128i) __builtin_ia32_aeskeygenassist128 ((__v2di)__X, __C);
	.loc 5 89 0
	vaeskeygenassist	$64, %xmm6, %xmm4	#, _482, tmp841
.LBE1164:
.LBE1163:
.LBB1165:
.LBB1141:
.LBB1140:
# /usr/lib/gcc/x86_64-linux-gnu/7/include/emmintrin.h:1293:   return (__m128i) ((__v2du)__A ^ (__v2du)__B);
	.loc 4 1293 0
	vmovaps	%xmm6, -224(%rbp)	# _482, %sfp
.LVL56:
.LBE1140:
.LBE1141:
.LBE1165:
.LBB1166:
.LBB1149:
.LBB1150:
	vpxor	%xmm6, %xmm2, %xmm0	# _482, tmp843, _486
.LVL57:
.LBE1150:
.LBE1149:
.LBB1151:
.LBB1152:
# /usr/lib/gcc/x86_64-linux-gnu/7/include/emmintrin.h:1422:   return (__m128i)__builtin_ia32_pshufd ((__v4si)__A, __mask);
	.loc 4 1422 0
	vpshufd	$255, %xmm4, %xmm9	#, tmp841, tmp849
.LBE1152:
.LBE1151:
.LBB1153:
.LBB1154:
# /usr/lib/gcc/x86_64-linux-gnu/7/include/emmintrin.h:1193:   return (__m128i)__builtin_ia32_pslldqi128 (__A, __N * 8);
	.loc 4 1193 0
	vpslldq	$4, %xmm0, %xmm5	#, _486, tmp845
.LVL58:
.LBE1154:
.LBE1153:
.LBB1155:
.LBB1156:
# /usr/lib/gcc/x86_64-linux-gnu/7/include/emmintrin.h:1293:   return (__m128i) ((__v2du)__A ^ (__v2du)__B);
	.loc 4 1293 0
	vpxor	%xmm5, %xmm0, %xmm8	# tmp845, _486, _490
.LVL59:
.LBE1156:
.LBE1155:
.LBB1157:
.LBB1158:
# /usr/lib/gcc/x86_64-linux-gnu/7/include/emmintrin.h:1193:   return (__m128i)__builtin_ia32_pslldqi128 (__A, __N * 8);
	.loc 4 1193 0
	vpslldq	$4, %xmm8, %xmm1	#, _490, tmp847
.LVL60:
.LBE1158:
.LBE1157:
.LBB1159:
.LBB1160:
# /usr/lib/gcc/x86_64-linux-gnu/7/include/emmintrin.h:1293:   return (__m128i) ((__v2du)__A ^ (__v2du)__B);
	.loc 4 1293 0
	vpxor	%xmm9, %xmm1, %xmm10	# tmp849, tmp847, tmp851
	vpxor	%xmm8, %xmm10, %xmm11	# _490, tmp851, _499
.LBE1160:
.LBE1159:
.LBE1166:
.LBB1167:
.LBB1168:
.LBB1169:
# /usr/lib/gcc/x86_64-linux-gnu/7/include/emmintrin.h:1193:   return (__m128i)__builtin_ia32_pslldqi128 (__A, __N * 8);
	.loc 4 1193 0
	vpslldq	$4, %xmm11, %xmm4	#, tmp1122, tmp854
.LBE1169:
.LBE1168:
.LBE1167:
.LBB1182:
.LBB1183:
# /usr/lib/gcc/x86_64-linux-gnu/7/include/wmmintrin.h:89:   return (__m128i) __builtin_ia32_aeskeygenassist128 ((__v2di)__X, __C);
	.loc 5 89 0
	vaeskeygenassist	$128, %xmm11, %xmm3	#, _499, tmp852
.LBE1183:
.LBE1182:
.LBB1184:
.LBB1162:
.LBB1161:
# /usr/lib/gcc/x86_64-linux-gnu/7/include/emmintrin.h:1293:   return (__m128i) ((__v2du)__A ^ (__v2du)__B);
	.loc 4 1293 0
	vmovaps	%xmm11, -240(%rbp)	# _499, %sfp
.LVL61:
.LBE1161:
.LBE1162:
.LBE1184:
.LBB1185:
.LBB1170:
.LBB1171:
	vpxor	%xmm11, %xmm4, %xmm7	# _499, tmp854, _503
.LVL62:
.LBE1171:
.LBE1170:
.LBB1172:
.LBB1173:
# /usr/lib/gcc/x86_64-linux-gnu/7/include/emmintrin.h:1422:   return (__m128i)__builtin_ia32_pshufd ((__v4si)__A, __mask);
	.loc 4 1422 0
	vpshufd	$255, %xmm3, %xmm8	#, tmp852, tmp860
.LBE1173:
.LBE1172:
.LBB1174:
.LBB1175:
# /usr/lib/gcc/x86_64-linux-gnu/7/include/emmintrin.h:1193:   return (__m128i)__builtin_ia32_pslldqi128 (__A, __N * 8);
	.loc 4 1193 0
	vpslldq	$4, %xmm7, %xmm2	#, _503, tmp856
.LVL63:
.LBE1175:
.LBE1174:
.LBB1176:
.LBB1177:
# /usr/lib/gcc/x86_64-linux-gnu/7/include/emmintrin.h:1293:   return (__m128i) ((__v2du)__A ^ (__v2du)__B);
	.loc 4 1293 0
	vpxor	%xmm2, %xmm7, %xmm0	# tmp856, _503, _507
.LVL64:
.LBE1177:
.LBE1176:
.LBB1178:
.LBB1179:
# /usr/lib/gcc/x86_64-linux-gnu/7/include/emmintrin.h:1193:   return (__m128i)__builtin_ia32_pslldqi128 (__A, __N * 8);
	.loc 4 1193 0
	vpslldq	$4, %xmm0, %xmm5	#, _507, tmp858
.LVL65:
.LBE1179:
.LBE1178:
.LBB1180:
.LBB1181:
# /usr/lib/gcc/x86_64-linux-gnu/7/include/emmintrin.h:1293:   return (__m128i) ((__v2du)__A ^ (__v2du)__B);
	.loc 4 1293 0
	vpxor	%xmm8, %xmm5, %xmm1	# tmp860, tmp858, tmp862
	vpxor	%xmm0, %xmm1, %xmm10	# _507, tmp862, _516
.LVL66:
.LBE1181:
.LBE1180:
.LBE1185:
.LBB1186:
.LBB1187:
.LBB1188:
# /usr/lib/gcc/x86_64-linux-gnu/7/include/emmintrin.h:1193:   return (__m128i)__builtin_ia32_pslldqi128 (__A, __N * 8);
	.loc 4 1193 0
	vpslldq	$4, %xmm10, %xmm11	#, _516, tmp865
.LBE1188:
.LBE1187:
.LBE1186:
.LBB1201:
.LBB1202:
# /usr/lib/gcc/x86_64-linux-gnu/7/include/wmmintrin.h:89:   return (__m128i) __builtin_ia32_aeskeygenassist128 ((__v2di)__X, __C);
	.loc 5 89 0
	vaeskeygenassist	$27, %xmm10, %xmm9	#, _516, tmp863
.LVL67:
.LBE1202:
.LBE1201:
.LBB1203:
.LBB1189:
.LBB1190:
# /usr/lib/gcc/x86_64-linux-gnu/7/include/emmintrin.h:1293:   return (__m128i) ((__v2du)__A ^ (__v2du)__B);
	.loc 4 1293 0
	vpxor	%xmm11, %xmm10, %xmm3	# tmp865, _516, _520
.LVL68:
.LBE1190:
.LBE1189:
.LBB1191:
.LBB1192:
# /usr/lib/gcc/x86_64-linux-gnu/7/include/emmintrin.h:1422:   return (__m128i)__builtin_ia32_pshufd ((__v4si)__A, __mask);
	.loc 4 1422 0
	vpshufd	$255, %xmm9, %xmm2	#, tmp863, tmp871
.LBE1192:
.LBE1191:
.LBB1193:
.LBB1194:
# /usr/lib/gcc/x86_64-linux-gnu/7/include/emmintrin.h:1193:   return (__m128i)__builtin_ia32_pslldqi128 (__A, __N * 8);
	.loc 4 1193 0
	vpslldq	$4, %xmm3, %xmm6	#, _520, tmp867
.LVL69:
.LBE1194:
.LBE1193:
.LBB1195:
.LBB1196:
# /usr/lib/gcc/x86_64-linux-gnu/7/include/emmintrin.h:1293:   return (__m128i) ((__v2du)__A ^ (__v2du)__B);
	.loc 4 1293 0
	vpxor	%xmm6, %xmm3, %xmm4	# tmp867, _520, _524
.LVL70:
.LBE1196:
.LBE1195:
.LBB1197:
.LBB1198:
# /usr/lib/gcc/x86_64-linux-gnu/7/include/emmintrin.h:1193:   return (__m128i)__builtin_ia32_pslldqi128 (__A, __N * 8);
	.loc 4 1193 0
	vpslldq	$4, %xmm4, %xmm7	#, _524, tmp869
.LVL71:
.LBE1198:
.LBE1197:
.LBB1199:
.LBB1200:
# /usr/lib/gcc/x86_64-linux-gnu/7/include/emmintrin.h:1293:   return (__m128i) ((__v2du)__A ^ (__v2du)__B);
	.loc 4 1293 0
	vpxor	%xmm2, %xmm7, %xmm0	# tmp871, tmp869, tmp873
	vpxor	%xmm4, %xmm0, %xmm11	# _524, tmp873, _533
.LVL72:
.LBE1200:
.LBE1199:
.LBE1203:
.LBB1204:
.LBB1205:
.LBB1206:
# /usr/lib/gcc/x86_64-linux-gnu/7/include/emmintrin.h:1193:   return (__m128i)__builtin_ia32_pslldqi128 (__A, __N * 8);
	.loc 4 1193 0
	vpslldq	$4, %xmm11, %xmm8	#, _533, tmp876
.LBE1206:
.LBE1205:
.LBE1204:
.LBB1219:
.LBB1220:
# /usr/lib/gcc/x86_64-linux-gnu/7/include/wmmintrin.h:89:   return (__m128i) __builtin_ia32_aeskeygenassist128 ((__v2di)__X, __C);
	.loc 5 89 0
	vaeskeygenassist	$54, %xmm11, %xmm5	#, _533, tmp874
.LVL73:
.LBE1220:
.LBE1219:
.LBB1221:
.LBB1207:
.LBB1208:
# /usr/lib/gcc/x86_64-linux-gnu/7/include/emmintrin.h:1293:   return (__m128i) ((__v2du)__A ^ (__v2du)__B);
	.loc 4 1293 0
	vpxor	%xmm8, %xmm11, %xmm9	# tmp876, _533, _537
.LVL74:
.LBE1208:
.LBE1207:
.LBB1209:
.LBB1210:
# /usr/lib/gcc/x86_64-linux-gnu/7/include/emmintrin.h:1422:   return (__m128i)__builtin_ia32_pshufd ((__v4si)__A, __mask);
	.loc 4 1422 0
	vpshufd	$255, %xmm5, %xmm4	#, tmp874, tmp882
.LBE1210:
.LBE1209:
.LBB1211:
.LBB1212:
# /usr/lib/gcc/x86_64-linux-gnu/7/include/emmintrin.h:1193:   return (__m128i)__builtin_ia32_pslldqi128 (__A, __N * 8);
	.loc 4 1193 0
	vpslldq	$4, %xmm9, %xmm1	#, _537, tmp878
.LVL75:
.LBE1212:
.LBE1211:
.LBB1213:
.LBB1214:
# /usr/lib/gcc/x86_64-linux-gnu/7/include/emmintrin.h:1293:   return (__m128i) ((__v2du)__A ^ (__v2du)__B);
	.loc 4 1293 0
	vpxor	%xmm1, %xmm9, %xmm3	# tmp878, _537, _541
.LVL76:
.LBE1214:
.LBE1213:
.LBB1215:
.LBB1216:
# /usr/lib/gcc/x86_64-linux-gnu/7/include/emmintrin.h:1193:   return (__m128i)__builtin_ia32_pslldqi128 (__A, __N * 8);
	.loc 4 1193 0
	vpslldq	$4, %xmm3, %xmm6	#, _541, tmp880
.LVL77:
.LBE1216:
.LBE1215:
.LBB1217:
.LBB1218:
# /usr/lib/gcc/x86_64-linux-gnu/7/include/emmintrin.h:1293:   return (__m128i) ((__v2du)__A ^ (__v2du)__B);
	.loc 4 1293 0
	vpxor	%xmm4, %xmm6, %xmm7	# tmp882, tmp880, tmp884
	vpxor	%xmm3, %xmm7, %xmm2	# _541, tmp884, _550
	vmovaps	%xmm2, -256(%rbp)	# _550, %sfp
.LVL78:
	.p2align 4,,10
	.p2align 3
.L31:
.LBE1218:
.LBE1217:
.LBE1221:
.LBE1222:
.LBE1224:
.LBB1225:
.LBB968:
.LBB957:
# src/sabd-enclave.c:177:       for (hash_slot_idx_t ab_jid_idx = 0; likely(ab_jid_idx < ab_jid_count); ab_jid_idx++) {
	.loc 1 177 0
	testl	%r13d, %r13d	# ab_jid_count
	je	.L124	#,
.LBE957:
# src/sabd-enclave.c:170:       register __m256i chain_blocks[CHAIN_BLOCK_COUNT] = {0};
	.loc 1 170 0
	vpxor	%xmm7, %xmm7, %xmm7	# chain_blocks$2
.LBB958:
# src/sabd-enclave.c:177:       for (hash_slot_idx_t ab_jid_idx = 0; likely(ab_jid_idx < ab_jid_count); ab_jid_idx++) {
	.loc 1 177 0
	movq	%r12, %rcx	# ab_jids, ivtmp.114
.LBE958:
# src/sabd-enclave.c:171:       register __m256i chain_block_masks[] = {
	.loc 1 171 0
	vmovdqa	%ymm15, %ymm3	# chain_block_masks$1, chain_block_masks$1
# src/sabd-enclave.c:176:       hash_slot_idx_t chain_idx = 0;
	.loc 1 176 0
	xorl	%esi, %esi	# chain_idx
# src/sabd-enclave.c:171:       register __m256i chain_block_masks[] = {
	.loc 1 171 0
	vmovdqa	%ymm14, %ymm4	# chain_block_masks$2, chain_block_masks$2
	vmovdqa	%ymm12, %ymm2	# chain_block_masks$0, chain_block_masks$0
# src/sabd-enclave.c:170:       register __m256i chain_blocks[CHAIN_BLOCK_COUNT] = {0};
	.loc 1 170 0
	vmovdqa	%ymm7, %ymm6	#, chain_blocks$0
	vmovdqa	%ymm7, %ymm5	# tmp27, chain_blocks$1
.LVL79:
	.p2align 4,,10
	.p2align 3
.L10:
.LBB959:
.LBB955:
.LBB917:
.LBB911:
.LBB883:
.LBB884:
.LBB885:
# /usr/lib/gcc/x86_64-linux-gnu/7/include/emmintrin.h:592:   return __extension__ (__m128i)(__v2di){ __q0, __q1 };
	.loc 4 592 0 discriminator 3
	vmovq	(%rcx), %xmm0	# MEM[base: _703, offset: 0B], tmp571
.LBE885:
.LBE884:
.LBE883:
.LBB886:
.LBB887:
# /usr/lib/gcc/x86_64-linux-gnu/7/include/emmintrin.h:1293:   return (__m128i) ((__v2du)__A ^ (__v2du)__B);
	.loc 4 1293 0 discriminator 3
	vpxor	-272(%rbp), %xmm0, %xmm9	# %sfp, tmp571, tmp572
.LBE887:
.LBE886:
.LBE911:
.LBE917:
.LBB918:
.LBB919:
# /usr/lib/gcc/x86_64-linux-gnu/7/include/avxintrin.h:1137:   return __builtin_ia32_vtestzpd256 ((__v4df)__M, (__v4df)__V);
	.file 6 "/usr/lib/gcc/x86_64-linux-gnu/7/include/avxintrin.h"
	.loc 6 1137 0 discriminator 3
	xorl	%edx, %edx	# tmp593
.LBE919:
.LBE918:
.LBB922:
.LBB923:
# /usr/lib/gcc/x86_64-linux-gnu/7/include/avxintrin.h:1344:   return __extension__ (__m256i)(__v4di){ __A, __A, __A, __A };
	.loc 6 1344 0 discriminator 3
	vpbroadcastq	(%rcx), %ymm1	# MEM[base: _703, offset: 0B], tmp570
.LVL80:
.LBE923:
.LBE922:
.LBB924:
.LBB912:
.LBB888:
.LBB889:
# /usr/lib/gcc/x86_64-linux-gnu/7/include/wmmintrin.h:63:   return (__m128i) __builtin_ia32_aesenc128 ((__v2di)__X, (__v2di)__Y);
	.loc 5 63 0 discriminator 3
	vaesenc	-80(%rbp), %xmm9, %xmm8	# %sfp, tmp572, tmp573
.LVL81:
.LBE889:
.LBE888:
.LBB890:
.LBB891:
	vaesenc	-112(%rbp), %xmm8, %xmm0	# %sfp, tmp573, tmp574
.LVL82:
.LBE891:
.LBE890:
.LBB892:
.LBB893:
	vaesenc	-144(%rbp), %xmm0, %xmm9	# %sfp, tmp574, tmp575
.LVL83:
.LBE893:
.LBE892:
.LBB894:
.LBB895:
	vaesenc	-176(%rbp), %xmm9, %xmm8	# %sfp, tmp575, tmp576
.LVL84:
.LBE895:
.LBE894:
.LBB896:
.LBB897:
	vaesenc	-208(%rbp), %xmm8, %xmm0	# %sfp, tmp576, tmp577
.LVL85:
.LBE897:
.LBE896:
.LBB898:
.LBB899:
	vaesenc	-224(%rbp), %xmm0, %xmm9	# %sfp, tmp577, tmp578
.LVL86:
.LBE899:
.LBE898:
.LBB900:
.LBB901:
	vaesenc	-240(%rbp), %xmm9, %xmm8	# %sfp, tmp578, tmp579
.LVL87:
.LBE901:
.LBE900:
.LBB902:
.LBB903:
	vaesenc	%xmm10, %xmm8, %xmm0	# _516, tmp579, tmp580
.LVL88:
.LBE903:
.LBE902:
.LBB904:
.LBB905:
	vaesenc	%xmm11, %xmm0, %xmm9	# _533, tmp580, tmp581
.LVL89:
.LBE905:
.LBE904:
.LBE912:
.LBE924:
.LBB925:
.LBB926:
# /usr/lib/gcc/x86_64-linux-gnu/7/include/avx2intrin.h:254:   return (__m256i) ((__v4di)__A == (__v4di)__B);
	.file 7 "/usr/lib/gcc/x86_64-linux-gnu/7/include/avx2intrin.h"
	.loc 7 254 0 discriminator 3
	vpcmpeqq	%ymm1, %ymm6, %ymm0	# tmp570, chain_blocks$0, tmp588
.LBE926:
.LBE925:
.LBB927:
.LBB913:
.LBB906:
.LBB907:
# /usr/lib/gcc/x86_64-linux-gnu/7/include/wmmintrin.h:71:   return (__m128i) __builtin_ia32_aesenclast128 ((__v2di)__X, (__v2di)__Y);
	.loc 5 71 0 discriminator 3
	vaesenclast	-256(%rbp), %xmm9, %xmm8	# %sfp, tmp581, tmp582
.LVL90:
.LBE907:
.LBE906:
.LBE913:
.LBE927:
.LBB928:
.LBB929:
# /usr/lib/gcc/x86_64-linux-gnu/7/include/avx2intrin.h:254:   return (__m256i) ((__v4di)__A == (__v4di)__B);
	.loc 7 254 0 discriminator 3
	vpcmpeqq	%ymm1, %ymm5, %ymm9	# tmp570, chain_blocks$1, tmp586
.LBE929:
.LBE928:
.LBB930:
.LBB914:
.LBB908:
.LBB909:
# /usr/lib/gcc/x86_64-linux-gnu/7/include/emmintrin.h:226:   return __builtin_ia32_vec_ext_v4si ((__v4si)__A, 0);
	.loc 4 226 0 discriminator 3
	vmovd	%xmm8, %eax	# tmp582, tmp584
.LVL91:
.LBE909:
.LBE908:
.LBE914:
.LBE930:
.LBB931:
.LBB932:
# /usr/lib/gcc/x86_64-linux-gnu/7/include/avx2intrin.h:254:   return (__m256i) ((__v4di)__A == (__v4di)__B);
	.loc 7 254 0 discriminator 3
	vpcmpeqq	%ymm1, %ymm7, %ymm8	# tmp570, chain_blocks$2, tmp591
.LBE932:
.LBE931:
.LBB933:
.LBB934:
# /usr/lib/gcc/x86_64-linux-gnu/7/include/avx2intrin.h:576:   return (__m256i) ((__v4du)__A | (__v4du)__B);
	.loc 7 576 0 discriminator 3
	vpor	%ymm0, %ymm9, %ymm9	# tmp588, tmp586, tmp589
.LBE934:
.LBE933:
# src/sabd-enclave.c:193:         bool jid_not_in_chain = _mm256_testz_pd((__m256d) chain_eq, (__m256d) chain_eq);
	.loc 1 193 0 discriminator 3
	vpor	%ymm8, %ymm9, %ymm0	# tmp591, tmp589, _49
.LVL92:
.LBB935:
.LBB936:
# /usr/lib/gcc/x86_64-linux-gnu/7/include/avxintrin.h:221:   return (__m256d) __builtin_ia32_blendvpd256 ((__v4df)__X,
	.loc 6 221 0 discriminator 3
	vblendvpd	%ymm3, %ymm1, %ymm5, %ymm9	# chain_block_masks$1, _53, chain_blocks$1, _265
.LBE936:
.LBE935:
.LBB937:
.LBB938:
	vblendvpd	%ymm2, %ymm1, %ymm6, %ymm8	# chain_block_masks$0, _53, chain_blocks$0, _264
.LBE938:
.LBE937:
.LBB939:
.LBB920:
# /usr/lib/gcc/x86_64-linux-gnu/7/include/avxintrin.h:1137:   return __builtin_ia32_vtestzpd256 ((__v4df)__M, (__v4df)__V);
	.loc 6 1137 0 discriminator 3
	vtestpd	%ymm0, %ymm0	# _49, _49
.LBE920:
.LBE939:
.LBB940:
.LBB941:
# /usr/lib/gcc/x86_64-linux-gnu/7/include/avxintrin.h:221:   return (__m256d) __builtin_ia32_blendvpd256 ((__v4df)__X,
	.loc 6 221 0 discriminator 3
	vblendvpd	%ymm4, %ymm1, %ymm7, %ymm1	# chain_block_masks$2, _53, chain_blocks$2, _236
.LBE941:
.LBE940:
# src/sabd-enclave.c:199:         chain_blocks[0] = (__m256i) _mm256_blendv_pd((__m256d) chain_blocks[0], (__m256d) ab_jid_block, (__m256d) chain_block_masks[0]);
	.loc 1 199 0 discriminator 3
	vmovdqa	%ymm8, %ymm6	# _264, chain_blocks$0
.LVL93:
# src/sabd-enclave.c:201:         chain_blocks[2] = (__m256i) _mm256_blendv_pd((__m256d) chain_blocks[2], (__m256d) ab_jid_block, (__m256d) chain_block_masks[2]);
	.loc 1 201 0 discriminator 3
	vmovdqa	%ymm1, %ymm7	# _236, chain_blocks$2
.LBB942:
.LBB921:
# /usr/lib/gcc/x86_64-linux-gnu/7/include/avxintrin.h:1137:   return __builtin_ia32_vtestzpd256 ((__v4df)__M, (__v4df)__V);
	.loc 6 1137 0 discriminator 3
	sete	%dl	#, tmp593
.LVL94:
.LBE921:
.LBE942:
.LBB943:
.LBB915:
# src/sabd-enclave.c:101:   return _mm_cvtsi128_si32(hash) & ((1 << hash_table_order) - 1);
	.loc 1 101 0 discriminator 3
	andl	%r14d, %eax	# _361, tmp594
.LVL95:
	addq	$8, %rcx	#, ivtmp.114
.LVL96:
.LBE915:
.LBE943:
# src/sabd-enclave.c:184:           (((uint64_t) (((int64_t) (((uint64_t) ab_jid_hash_slot_idx) ^ ((uint64_t) hash_slot_idx))) - 1))
	.loc 1 184 0 discriminator 3
	xorl	%edi, %eax	# hash_slot_idx, tmp596
	subq	$1, %rax	#, tmp597
# src/sabd-enclave.c:185:            >> (sizeof(hash_slot_idx) * 8)) & 1;
	.loc 1 185 0 discriminator 3
	shrq	$32, %rax	#, tmp598
# src/sabd-enclave.c:196:         uint64_t should_insert_jid = hash_slot_matches & jid_not_in_chain;
	.loc 1 196 0 discriminator 3
	andq	%rdx, %rax	# tmp593, should_insert_jid
.LVL97:
.LBB944:
.LBB945:
# /usr/lib/gcc/x86_64-linux-gnu/7/include/avxintrin.h:1344:   return __extension__ (__m256i)(__v4di){ __A, __A, __A, __A };
	.loc 6 1344 0 discriminator 3
	vmovq	%rax, %xmm5	# should_insert_jid, should_insert_jid
.LBE945:
.LBE944:
# src/sabd-enclave.c:197:         chain_idx += should_insert_jid;
	.loc 1 197 0 discriminator 3
	addl	%eax, %esi	# should_insert_jid, chain_idx
.LVL98:
.LBB947:
.LBB946:
# /usr/lib/gcc/x86_64-linux-gnu/7/include/avxintrin.h:1344:   return __extension__ (__m256i)(__v4di){ __A, __A, __A, __A };
	.loc 6 1344 0 discriminator 3
	vpbroadcastq	%xmm5, %ymm0	# should_insert_jid, tmp613
.LVL99:
.LBE946:
.LBE947:
# src/sabd-enclave.c:200:         chain_blocks[1] = (__m256i) _mm256_blendv_pd((__m256d) chain_blocks[1], (__m256d) ab_jid_block, (__m256d) chain_block_masks[1]);
	.loc 1 200 0 discriminator 3
	vmovdqa	%ymm9, %ymm5	# _265, chain_blocks$1
.LBB948:
.LBB949:
# /usr/lib/gcc/x86_64-linux-gnu/7/include/avx2intrin.h:128:   return (__m256i) ((__v4du)__A + (__v4du)__B);
	.loc 7 128 0 discriminator 3
	vpaddq	%ymm0, %ymm2, %ymm2	# tmp613, chain_block_masks$0, chain_block_masks$0
.LVL100:
.LBE949:
.LBE948:
.LBB950:
.LBB951:
	vpaddq	%ymm0, %ymm4, %ymm4	# tmp613, chain_block_masks$2, chain_block_masks$2
.LBE951:
.LBE950:
.LBB952:
.LBB953:
	vpaddq	%ymm0, %ymm3, %ymm3	# tmp613, chain_block_masks$1, chain_block_masks$1
.LBE953:
.LBE952:
.LBE955:
# src/sabd-enclave.c:177:       for (hash_slot_idx_t ab_jid_idx = 0; likely(ab_jid_idx < ab_jid_count); ab_jid_idx++) {
	.loc 1 177 0 discriminator 3
	cmpq	%rcx, %rbx	# ivtmp.114, _697
	jne	.L10	#,
	cmpl	$12, %esi	#, chain_idx
	seta	%cl	#, tmp615
.LVL101:
	orl	%ecx, %r11d	# tmp615, any_hash_slots_overflowed
.LVL102:
.L12:
.LBE959:
.LBB960:
.LBB961:
# /usr/lib/gcc/x86_64-linux-gnu/7/include/avxintrin.h:221:   return (__m256d) __builtin_ia32_blendvpd256 ((__v4df)__X,
	.loc 6 221 0
	vblendvpd	%ymm2, %ymm13, %ymm8, %ymm2	# _815, tmp907, _264, tmp616
.LVL103:
.LBE961:
.LBE960:
.LBB962:
.LBB963:
	vblendvpd	%ymm3, %ymm13, %ymm9, %ymm3	# _817, tmp907, _265, tmp620
.LVL104:
.LBE963:
.LBE962:
.LBE968:
# src/sabd-enclave.c:167:     for (hash_slot_idx_t hash_slot_idx = 0; likely(hash_slot_idx < hash_table_slot_count); hash_slot_idx++) {
	.loc 1 167 0
	addl	$1, %edi	#, hash_slot_idx
.LVL105:
	addq	$96, %r10	#, ivtmp.118
.LBB969:
.LBB964:
.LBB965:
# /usr/lib/gcc/x86_64-linux-gnu/7/include/avxintrin.h:221:   return (__m256d) __builtin_ia32_blendvpd256 ((__v4df)__X,
	.loc 6 221 0
	vblendvpd	%ymm4, %ymm13, %ymm1, %ymm4	# _819, tmp907, _236, tmp624
.LVL106:
.LBE965:
.LBE964:
# src/sabd-enclave.c:215:       p_chain_blocks[0] = chain_blocks[0];
	.loc 1 215 0
	vmovdqa	%ymm2, -96(%r10)	# tmp616, MEM[base: _693, offset: 0B]
# src/sabd-enclave.c:216:       p_chain_blocks[1] = chain_blocks[1];
	.loc 1 216 0
	vmovdqa	%ymm3, -64(%r10)	# tmp620, MEM[base: _693, offset: 32B]
# src/sabd-enclave.c:217:       p_chain_blocks[2] = chain_blocks[2];
	.loc 1 217 0
	vmovdqa	%ymm4, -32(%r10)	# tmp624, MEM[base: _693, offset: 64B]
.LVL107:
.LBE969:
# src/sabd-enclave.c:167:     for (hash_slot_idx_t hash_slot_idx = 0; likely(hash_slot_idx < hash_table_slot_count); hash_slot_idx++) {
	.loc 1 167 0
	cmpl	%r15d, %edi	# _727, hash_slot_idx
	jne	.L31	#,
.LVL108:
.LBE1225:
# src/sabd-enclave.c:223:     if (unlikely(!hash_table_constructed)) {
	.loc 1 223 0
	testb	%r11b, %r11b	# any_hash_slots_overflowed
	jne	.L125	#,
	movq	-304(%rbp), %rdi	# %sfp, ivtmp.110
.LVL109:
	movq	-312(%rbp), %r10	# %sfp, in_jid_count
	movq	%r9, %r12	# hashed_ab_jids, hashed_ab_jids
	movl	%r13d, %r8d	# ab_jid_count, ab_jid_count
	movq	-320(%rbp), %r13	# %sfp, ivtmp.105
.LVL110:
	leaq	(%rdi,%r10,8), %r9	#, _707
.LBE1228:
.LBE1231:
.LBB1232:
# src/sabd-enclave.c:238:   for (size_t in_jid_idx = 0; likely(in_jid_idx < in_jid_count); in_jid_idx++) {
	.loc 1 238 0
	testq	%r10, %r10	# in_jid_count
	je	.L15	#,
	movq	-280(%rbp), %rsi	# %sfp, in_hashed_ab_jids_result_bits
	vmovdqa	-80(%rbp), %xmm13	# %sfp, _397
	vmovdqa	-112(%rbp), %xmm14	# %sfp, _414
	vmovdqa	-144(%rbp), %xmm15	# %sfp, _431
	vmovdqa	-176(%rbp), %xmm5	# %sfp, _448
	vmovdqa	-208(%rbp), %xmm6	# %sfp, _465
	vmovdqa	-224(%rbp), %xmm7	# %sfp, _482
	vmovdqa	-240(%rbp), %xmm8	# %sfp, _499
	vmovdqa	-256(%rbp), %xmm9	# %sfp, _550
	vmovdqa	-272(%rbp), %xmm12	# %sfp, tmp772
.LVL111:
.L26:
.LBB1233:
.LBB1234:
.LBB1235:
.LBB1236:
.LBB1237:
.LBB1238:
# /usr/lib/gcc/x86_64-linux-gnu/7/include/emmintrin.h:592:   return __extension__ (__m128i)(__v2di){ __q0, __q1 };
	.loc 4 592 0 discriminator 3
	vmovq	(%rdi), %xmm0	# MEM[base: _710, offset: 0B], tmp696
.LBE1238:
.LBE1237:
.LBE1236:
.LBE1235:
.LBE1234:
.LBB1264:
.LBB1265:
# /usr/lib/gcc/x86_64-linux-gnu/7/include/avxintrin.h:1344:   return __extension__ (__m256i)(__v4di){ __A, __A, __A, __A };
	.loc 6 1344 0 discriminator 3
	vpbroadcastq	(%rdi), %ymm1	# MEM[base: _710, offset: 0B], tmp695
.LVL112:
	addq	$8, %rdi	#, ivtmp.110
.LVL113:
.LBE1265:
.LBE1264:
.LBB1266:
.LBB1263:
.LBB1239:
.LBB1240:
# /usr/lib/gcc/x86_64-linux-gnu/7/include/emmintrin.h:1293:   return (__m128i) ((__v2du)__A ^ (__v2du)__B);
	.loc 4 1293 0 discriminator 3
	vpxor	%xmm12, %xmm0, %xmm2	# tmp772, tmp696, tmp697
.LBE1240:
.LBE1239:
.LBB1241:
.LBB1242:
# /usr/lib/gcc/x86_64-linux-gnu/7/include/wmmintrin.h:63:   return (__m128i) __builtin_ia32_aesenc128 ((__v2di)__X, (__v2di)__Y);
	.loc 5 63 0 discriminator 3
	vaesenc	%xmm13, %xmm2, %xmm3	# _397, tmp697, tmp698
.LVL114:
.LBE1242:
.LBE1241:
.LBB1243:
.LBB1244:
	vaesenc	%xmm14, %xmm3, %xmm4	# _414, tmp698, tmp699
.LVL115:
.LBE1244:
.LBE1243:
.LBB1245:
.LBB1246:
	vaesenc	%xmm15, %xmm4, %xmm0	# _431, tmp699, tmp700
.LVL116:
.LBE1246:
.LBE1245:
.LBB1247:
.LBB1248:
	vaesenc	%xmm5, %xmm0, %xmm2	# _448, tmp700, tmp701
.LVL117:
.LBE1248:
.LBE1247:
.LBB1249:
.LBB1250:
	vaesenc	%xmm6, %xmm2, %xmm3	# _465, tmp701, tmp702
.LVL118:
.LBE1250:
.LBE1249:
.LBB1251:
.LBB1252:
	vaesenc	%xmm7, %xmm3, %xmm4	# _482, tmp702, tmp703
.LVL119:
.LBE1252:
.LBE1251:
.LBB1253:
.LBB1254:
	vaesenc	%xmm8, %xmm4, %xmm0	# _499, tmp703, tmp704
.LVL120:
.LBE1254:
.LBE1253:
.LBB1255:
.LBB1256:
	vaesenc	%xmm10, %xmm0, %xmm2	# _516, tmp704, tmp705
.LVL121:
.LBE1256:
.LBE1255:
.LBB1257:
.LBB1258:
	vaesenc	%xmm11, %xmm2, %xmm3	# _533, tmp705, tmp706
.LVL122:
.LBE1258:
.LBE1257:
.LBB1259:
.LBB1260:
# /usr/lib/gcc/x86_64-linux-gnu/7/include/wmmintrin.h:71:   return (__m128i) __builtin_ia32_aesenclast128 ((__v2di)__X, (__v2di)__Y);
	.loc 5 71 0 discriminator 3
	vaesenclast	%xmm9, %xmm3, %xmm4	# _550, tmp706, tmp707
.LVL123:
.LBE1260:
.LBE1259:
.LBB1261:
.LBB1262:
# /usr/lib/gcc/x86_64-linux-gnu/7/include/emmintrin.h:226:   return __builtin_ia32_vec_ext_v4si ((__v4si)__A, 0);
	.loc 4 226 0 discriminator 3
	vmovd	%xmm4, %eax	# tmp707, tmp709
.LBE1262:
.LBE1261:
# src/sabd-enclave.c:101:   return _mm_cvtsi128_si32(hash) & ((1 << hash_table_order) - 1);
	.loc 1 101 0 discriminator 3
	andl	%r14d, %eax	# _361, _362
.LVL124:
.LBE1263:
.LBE1266:
# src/sabd-enclave.c:246:     __m256i *chain_blocks = (__m256i *) &hashed_ab_jids[in_jid_hash_slot_idx * chain_length];
	.loc 1 246 0 discriminator 3
	leal	(%rax,%rax,2), %r11d	#, tmp712
# src/sabd-enclave.c:253:     volatile uint16_t *chain_result_bits = &in_hashed_ab_jids_result_bits[in_jid_hash_slot_idx];
	.loc 1 253 0 discriminator 3
	cltq
# src/sabd-enclave.c:246:     __m256i *chain_blocks = (__m256i *) &hashed_ab_jids[in_jid_hash_slot_idx * chain_length];
	.loc 1 246 0 discriminator 3
	sall	$2, %r11d	#,
	leaq	(%r12,%r11,8), %rcx	#, chain_blocks
.LVL125:
# src/sabd-enclave.c:253:     volatile uint16_t *chain_result_bits = &in_hashed_ab_jids_result_bits[in_jid_hash_slot_idx];
	.loc 1 253 0 discriminator 3
	leaq	(%rsi,%rax,2), %r11	#, chain_result_bits
.LBB1267:
.LBB1268:
# /usr/lib/gcc/x86_64-linux-gnu/7/include/avx2intrin.h:254:   return (__m256i) ((__v4di)__A == (__v4di)__B);
	.loc 7 254 0 discriminator 3
	vmovdqa	(%rcx), %ymm0	# *chain_blocks_297, *chain_blocks_297
.LBE1268:
.LBE1267:
.LBB1269:
.LBB1270:
	vmovdqa	32(%rcx), %ymm3	# MEM[(__m256i * {ref-all})chain_blocks_297 + 32B], MEM[(__m256i * {ref-all})chain_blocks_297 + 32B]
.LBE1270:
.LBE1269:
# src/sabd-enclave.c:254:     *chain_result_bits = (*chain_result_bits ^ 0xF000) | chain_eq_mask;
	.loc 1 254 0 discriminator 3
	movzwl	(%r11), %eax	# *chain_result_bits_302, _124
.LBB1271:
.LBB1272:
# /usr/lib/gcc/x86_64-linux-gnu/7/include/avxintrin.h:1191:   return __builtin_ia32_movmskpd256 ((__v4df)__A);
	.loc 6 1191 0 discriminator 3
	vpcmpeqq	%ymm1, %ymm0, %ymm2	# tmp695, *chain_blocks_297, tmp720
.LBE1272:
.LBE1271:
.LBB1274:
.LBB1275:
# /usr/lib/gcc/x86_64-linux-gnu/7/include/avx2intrin.h:254:   return (__m256i) ((__v4di)__A == (__v4di)__B);
	.loc 7 254 0 discriminator 3
	vmovdqa	64(%rcx), %ymm0	# MEM[(__m256i * {ref-all})chain_blocks_297 + 64B], MEM[(__m256i * {ref-all})chain_blocks_297 + 64B]
.LBE1275:
.LBE1274:
.LBB1276:
.LBB1277:
# /usr/lib/gcc/x86_64-linux-gnu/7/include/avxintrin.h:1191:   return __builtin_ia32_movmskpd256 ((__v4df)__A);
	.loc 6 1191 0 discriminator 3
	vpcmpeqq	%ymm1, %ymm3, %ymm4	# tmp695, MEM[(__m256i * {ref-all})chain_blocks_297 + 32B], tmp725
.LBE1277:
.LBE1276:
# src/sabd-enclave.c:254:     *chain_result_bits = (*chain_result_bits ^ 0xF000) | chain_eq_mask;
	.loc 1 254 0 discriminator 3
	xorw	$-4096, %ax	#, tmp737
.LBB1279:
.LBB1280:
# /usr/lib/gcc/x86_64-linux-gnu/7/include/avxintrin.h:1191:   return __builtin_ia32_movmskpd256 ((__v4df)__A);
	.loc 6 1191 0 discriminator 3
	vpcmpeqq	%ymm1, %ymm0, %ymm1	# tmp695, MEM[(__m256i * {ref-all})chain_blocks_297 + 64B], tmp730
.LBE1280:
.LBE1279:
.LBB1282:
.LBB1278:
	vmovmskpd	%ymm4, %edx	# tmp725, tmp721
.LBE1278:
.LBE1282:
.LBB1283:
.LBB1273:
	vmovmskpd	%ymm2, %r10d	# tmp720, tmp716
.LBE1273:
.LBE1283:
# src/sabd-enclave.c:249:       (_mm256_movemask_pd((__m256d) _mm256_cmpeq_epi64(in_jid_block, chain_blocks[1])) << 4) |
	.loc 1 249 0 discriminator 3
	sall	$4, %edx	#, tmp733
.LBB1284:
.LBB1281:
# /usr/lib/gcc/x86_64-linux-gnu/7/include/avxintrin.h:1191:   return __builtin_ia32_movmskpd256 ((__v4df)__A);
	.loc 6 1191 0 discriminator 3
	vmovmskpd	%ymm1, %ecx	# tmp730, tmp726
.LVL126:
.LBE1281:
.LBE1284:
# src/sabd-enclave.c:250:       (_mm256_movemask_pd((__m256d) _mm256_cmpeq_epi64(in_jid_block, chain_blocks[2])) << 8);
	.loc 1 250 0 discriminator 3
	sall	$8, %ecx	#, tmp734
# src/sabd-enclave.c:249:       (_mm256_movemask_pd((__m256d) _mm256_cmpeq_epi64(in_jid_block, chain_blocks[1])) << 4) |
	.loc 1 249 0 discriminator 3
	orl	%ecx, %edx	# tmp734, tmp735
	orl	%edx, %r10d	# tmp735, chain_eq_mask
# src/sabd-enclave.c:254:     *chain_result_bits = (*chain_result_bits ^ 0xF000) | chain_eq_mask;
	.loc 1 254 0 discriminator 3
	orl	%r10d, %eax	# chain_eq_mask, _126
	movw	%ax, (%r11)	# _126, *chain_result_bits_302
.LVL127:
.LBE1233:
# src/sabd-enclave.c:238:   for (size_t in_jid_idx = 0; likely(in_jid_idx < in_jid_count); in_jid_idx++) {
	.loc 1 238 0 discriminator 3
	cmpq	%rdi, %r9	# ivtmp.110, _707
	jne	.L26	#,
.LVL128:
.L15:
	leal	-1(%r15), %r11d	#,
	leaq	96(%r12), %r14	#, tmp896
.LBE1232:
.LBB1285:
# src/sabd-enclave.c:258:   for (hash_slot_idx_t ab_jid_idx = 0; likely(ab_jid_idx < ab_jid_count); ab_jid_idx++) {
	.loc 1 258 0
	testl	%r8d, %r8d	# ab_jid_count
	je	.L27	#,
	leal	-1(%r15), %r14d	#,
	movq	-328(%rbp), %r11	# %sfp, ivtmp.106
	movq	-280(%rbp), %r8	# %sfp, in_hashed_ab_jids_result_bits
	movq	%r14, %r15	#,
.LVL129:
	leaq	(%r14,%r14,2), %r9	#, tmp742
	leaq	96(%r12), %r14	#, tmp896
	movl	%r15d, -80(%rbp)	# tmp894, %sfp
.LVL130:
	salq	$5, %r9	#, tmp743
	addq	%r14, %r9	# tmp896, _835
.LVL131:
	.p2align 4,,10
	.p2align 3
.L29:
	movq	%r9, %rsi	# _835, tmp927
.LBB1286:
# src/sabd-enclave.c:261:     uint16_t ab_jid_result = 0;
	.loc 1 261 0
	xorl	%eax, %eax	# ab_jid_result
.LBB1287:
.LBB1288:
# /usr/lib/gcc/x86_64-linux-gnu/7/include/avxintrin.h:1344:   return __extension__ (__m256i)(__v4di){ __A, __A, __A, __A };
	.loc 6 1344 0
	vpbroadcastq	0(%r13), %ymm10	# MEM[base: _720, offset: 0B], _315
.LVL132:
	movq	%r8, %rdi	# in_hashed_ab_jids_result_bits, ivtmp.100
	subq	%r12, %rsi	# hashed_ab_jids, tmp927
	movq	%r12, %rcx	# hashed_ab_jids, ivtmp.99
	andl	$32, %esi	#, tmp927
	je	.L28	#,
.LVL133:
.LBE1288:
.LBE1287:
.LBB1289:
.LBB1290:
.LBB1291:
.LBB1292:
# /usr/lib/gcc/x86_64-linux-gnu/7/include/avx2intrin.h:254:   return (__m256i) ((__v4di)__A == (__v4di)__B);
	.loc 7 254 0
	vmovdqa	32(%r12), %ymm14	# MEM[base: _770, offset: 32B], MEM[base: _770, offset: 32B]
.LBE1292:
.LBE1291:
.LBB1295:
.LBB1296:
	vmovdqa	64(%r12), %ymm5	# MEM[base: _770, offset: 64B], MEM[base: _770, offset: 64B]
	leaq	96(%r12), %rcx	#, ivtmp.99
.LVL134:
.LBE1296:
.LBE1295:
.LBB1299:
.LBB1300:
	vmovdqa	(%r12), %ymm11	# MEM[base: _770, offset: 0B], MEM[base: _770, offset: 0B]
.LBE1300:
.LBE1299:
# src/sabd-enclave.c:269:       uint16_t chain_result = in_hashed_ab_jids_result_bits[hash_slot_idx] & 0xFFF;
	.loc 1 269 0
	movzwl	(%r8), %edi	# *_154, _155
.LBB1303:
.LBB1304:
# /usr/lib/gcc/x86_64-linux-gnu/7/include/avxintrin.h:1191:   return __builtin_ia32_movmskpd256 ((__v4df)__A);
	.loc 6 1191 0
	vpcmpeqq	%ymm10, %ymm14, %ymm15	# _315, MEM[base: _770, offset: 32B], tmp979
.LBE1304:
.LBE1303:
.LBB1310:
.LBB1311:
	vpcmpeqq	%ymm10, %ymm5, %ymm6	# _315, MEM[base: _770, offset: 64B], tmp983
.LBE1311:
.LBE1310:
.LBB1317:
.LBB1318:
	vpcmpeqq	%ymm10, %ymm11, %ymm13	# _315, MEM[base: _770, offset: 0B], tmp975
.LBE1318:
.LBE1317:
# src/sabd-enclave.c:269:       uint16_t chain_result = in_hashed_ab_jids_result_bits[hash_slot_idx] & 0xFFF;
	.loc 1 269 0
	andw	$4095, %di	#, chain_result
.LBB1323:
.LBB1305:
# /usr/lib/gcc/x86_64-linux-gnu/7/include/avxintrin.h:1191:   return __builtin_ia32_movmskpd256 ((__v4df)__A);
	.loc 6 1191 0
	vmovmskpd	%ymm15, %eax	# tmp979, tmp980
.LBE1305:
.LBE1323:
.LBB1324:
.LBB1312:
	vmovmskpd	%ymm6, %edx	# tmp983, tmp984
.LBE1312:
.LBE1324:
# src/sabd-enclave.c:267:         (_mm256_movemask_pd((__m256d) _mm256_cmpeq_epi64(ab_jid_block, chain_blocks[1])) << 4) |
	.loc 1 267 0
	sall	$4, %eax	#, tmp980
# src/sabd-enclave.c:268:         (_mm256_movemask_pd((__m256d) _mm256_cmpeq_epi64(ab_jid_block, chain_blocks[2])) << 8);
	.loc 1 268 0
	sall	$8, %edx	#, tmp984
.LBB1325:
.LBB1319:
# /usr/lib/gcc/x86_64-linux-gnu/7/include/avxintrin.h:1191:   return __builtin_ia32_movmskpd256 ((__v4df)__A);
	.loc 6 1191 0
	vmovmskpd	%ymm13, %r10d	# tmp975, tmp976
.LVL135:
.LBE1319:
.LBE1325:
# src/sabd-enclave.c:267:         (_mm256_movemask_pd((__m256d) _mm256_cmpeq_epi64(ab_jid_block, chain_blocks[1])) << 4) |
	.loc 1 267 0
	orl	%edx, %eax	# tmp987, tmp988
	orl	%r10d, %eax	# tmp976, chain_eq_mask
# src/sabd-enclave.c:270:       ab_jid_result |= chain_eq_mask & chain_result;
	.loc 1 270 0
	andl	%edi, %eax	# chain_result, ab_jid_result
.LVL136:
	leaq	2(%r8), %rdi	#, ivtmp.100
.LBE1290:
# src/sabd-enclave.c:263:     for (hash_slot_idx_t hash_slot_idx = 0; likely(hash_slot_idx < hash_table_slot_count); hash_slot_idx++) {
	.loc 1 263 0
	cmpq	%r9, %rcx	# _835, ivtmp.99
	je	.L114	#,
.LVL137:
	.p2align 4,,10
	.p2align 3
.L28:
.LBB1343:
.LBB1326:
.LBB1293:
# /usr/lib/gcc/x86_64-linux-gnu/7/include/avx2intrin.h:254:   return (__m256i) ((__v4di)__A == (__v4di)__B);
	.loc 7 254 0 discriminator 3
	vmovdqa	32(%rcx), %ymm9	# MEM[base: _770, offset: 32B], MEM[base: _770, offset: 32B]
.LBE1293:
.LBE1326:
.LBB1327:
.LBB1301:
	vmovdqa	(%rcx), %ymm7	# MEM[base: _770, offset: 0B], MEM[base: _770, offset: 0B]
	addq	$192, %rcx	#, ivtmp.99
	addq	$4, %rdi	#, ivtmp.100
.LBE1301:
.LBE1327:
.LBB1328:
.LBB1297:
	vmovdqa	-128(%rcx), %ymm2	# MEM[base: _770, offset: 64B], MEM[base: _770, offset: 64B]
.LBE1297:
.LBE1328:
.LBB1329:
.LBB1294:
	vmovdqa	-64(%rcx), %ymm1	# MEM[base: _770, offset: 32B], MEM[base: _770, offset: 32B]
.LBE1294:
.LBE1329:
.LBB1330:
.LBB1306:
# /usr/lib/gcc/x86_64-linux-gnu/7/include/avxintrin.h:1191:   return __builtin_ia32_movmskpd256 ((__v4df)__A);
	.loc 6 1191 0 discriminator 3
	vpcmpeqq	%ymm10, %ymm9, %ymm12	# _315, MEM[base: _770, offset: 32B], tmp755
.LBE1306:
.LBE1330:
.LBB1331:
.LBB1298:
# /usr/lib/gcc/x86_64-linux-gnu/7/include/avx2intrin.h:254:   return (__m256i) ((__v4di)__A == (__v4di)__B);
	.loc 7 254 0 discriminator 3
	vmovdqa	-32(%rcx), %ymm13	# MEM[base: _770, offset: 64B], MEM[base: _770, offset: 64B]
.LBE1298:
.LBE1331:
.LBB1332:
.LBB1320:
# /usr/lib/gcc/x86_64-linux-gnu/7/include/avxintrin.h:1191:   return __builtin_ia32_movmskpd256 ((__v4df)__A);
	.loc 6 1191 0 discriminator 3
	vpcmpeqq	%ymm10, %ymm7, %ymm8	# _315, MEM[base: _770, offset: 0B], tmp750
.LBE1320:
.LBE1332:
# src/sabd-enclave.c:269:       uint16_t chain_result = in_hashed_ab_jids_result_bits[hash_slot_idx] & 0xFFF;
	.loc 1 269 0 discriminator 3
	movzwl	-4(%rdi), %r15d	# *_154, _155
.LBB1333:
.LBB1313:
# /usr/lib/gcc/x86_64-linux-gnu/7/include/avxintrin.h:1191:   return __builtin_ia32_movmskpd256 ((__v4df)__A);
	.loc 6 1191 0 discriminator 3
	vpcmpeqq	%ymm10, %ymm2, %ymm3	# _315, MEM[base: _770, offset: 64B], tmp760
.LBE1313:
.LBE1333:
.LBB1334:
.LBB1302:
# /usr/lib/gcc/x86_64-linux-gnu/7/include/avx2intrin.h:254:   return (__m256i) ((__v4di)__A == (__v4di)__B);
	.loc 7 254 0 discriminator 3
	vmovdqa	-96(%rcx), %ymm4	# MEM[base: _770, offset: 0B], MEM[base: _770, offset: 0B]
.LBE1302:
.LBE1334:
.LBB1335:
.LBB1307:
# /usr/lib/gcc/x86_64-linux-gnu/7/include/avxintrin.h:1191:   return __builtin_ia32_movmskpd256 ((__v4df)__A);
	.loc 6 1191 0 discriminator 3
	vpcmpeqq	%ymm10, %ymm1, %ymm11	# _315, MEM[base: _770, offset: 32B], tmp946
.LBE1307:
.LBE1335:
.LBB1336:
.LBB1314:
	vpcmpeqq	%ymm10, %ymm13, %ymm14	# _315, MEM[base: _770, offset: 64B], tmp950
.LBE1314:
.LBE1336:
# src/sabd-enclave.c:269:       uint16_t chain_result = in_hashed_ab_jids_result_bits[hash_slot_idx] & 0xFFF;
	.loc 1 269 0 discriminator 3
	andw	$4095, %r15w	#, chain_result
.LBB1337:
.LBB1308:
# /usr/lib/gcc/x86_64-linux-gnu/7/include/avxintrin.h:1191:   return __builtin_ia32_movmskpd256 ((__v4df)__A);
	.loc 6 1191 0 discriminator 3
	vmovmskpd	%ymm12, %edx	# tmp755, tmp751
.LBE1308:
.LBE1337:
.LBB1338:
.LBB1321:
	vpcmpeqq	%ymm10, %ymm4, %ymm0	# _315, MEM[base: _770, offset: 0B], tmp942
	vmovmskpd	%ymm8, %r10d	# tmp750, tmp746
.LBE1321:
.LBE1338:
.LBB1339:
.LBB1315:
	vmovmskpd	%ymm3, %esi	# tmp760, tmp756
.LVL138:
.LBE1315:
.LBE1339:
# src/sabd-enclave.c:267:         (_mm256_movemask_pd((__m256d) _mm256_cmpeq_epi64(ab_jid_block, chain_blocks[1])) << 4) |
	.loc 1 267 0 discriminator 3
	sall	$4, %edx	#, tmp761
.LVL139:
# src/sabd-enclave.c:268:         (_mm256_movemask_pd((__m256d) _mm256_cmpeq_epi64(ab_jid_block, chain_blocks[2])) << 8);
	.loc 1 268 0 discriminator 3
	sall	$8, %esi	#, tmp762
.LVL140:
# src/sabd-enclave.c:267:         (_mm256_movemask_pd((__m256d) _mm256_cmpeq_epi64(ab_jid_block, chain_blocks[1])) << 4) |
	.loc 1 267 0 discriminator 3
	orl	%edx, %esi	# tmp761, tmp763
.LBB1340:
.LBB1309:
# /usr/lib/gcc/x86_64-linux-gnu/7/include/avxintrin.h:1191:   return __builtin_ia32_movmskpd256 ((__v4df)__A);
	.loc 6 1191 0 discriminator 3
	vmovmskpd	%ymm11, %edx	# tmp946, tmp947
.LBE1309:
.LBE1340:
# src/sabd-enclave.c:267:         (_mm256_movemask_pd((__m256d) _mm256_cmpeq_epi64(ab_jid_block, chain_blocks[1])) << 4) |
	.loc 1 267 0 discriminator 3
	orl	%esi, %r10d	# tmp763, chain_eq_mask
.LVL141:
.LBB1341:
.LBB1316:
# /usr/lib/gcc/x86_64-linux-gnu/7/include/avxintrin.h:1191:   return __builtin_ia32_movmskpd256 ((__v4df)__A);
	.loc 6 1191 0 discriminator 3
	vmovmskpd	%ymm14, %esi	# tmp950, tmp951
.LBE1316:
.LBE1341:
# src/sabd-enclave.c:267:         (_mm256_movemask_pd((__m256d) _mm256_cmpeq_epi64(ab_jid_block, chain_blocks[1])) << 4) |
	.loc 1 267 0 discriminator 3
	sall	$4, %edx	#, tmp953
# src/sabd-enclave.c:270:       ab_jid_result |= chain_eq_mask & chain_result;
	.loc 1 270 0 discriminator 3
	andl	%r10d, %r15d	# chain_eq_mask, tmp766
# src/sabd-enclave.c:268:         (_mm256_movemask_pd((__m256d) _mm256_cmpeq_epi64(ab_jid_block, chain_blocks[2])) << 8);
	.loc 1 268 0 discriminator 3
	sall	$8, %esi	#, tmp954
.LBB1342:
.LBB1322:
# /usr/lib/gcc/x86_64-linux-gnu/7/include/avxintrin.h:1191:   return __builtin_ia32_movmskpd256 ((__v4df)__A);
	.loc 6 1191 0 discriminator 3
	vmovmskpd	%ymm0, %r10d	# tmp942, tmp943
.LBE1322:
.LBE1342:
# src/sabd-enclave.c:270:       ab_jid_result |= chain_eq_mask & chain_result;
	.loc 1 270 0 discriminator 3
	orl	%r15d, %eax	# tmp766, ab_jid_result
# src/sabd-enclave.c:269:       uint16_t chain_result = in_hashed_ab_jids_result_bits[hash_slot_idx] & 0xFFF;
	.loc 1 269 0 discriminator 3
	movzwl	-2(%rdi), %r15d	# *_154, _155
# src/sabd-enclave.c:267:         (_mm256_movemask_pd((__m256d) _mm256_cmpeq_epi64(ab_jid_block, chain_blocks[1])) << 4) |
	.loc 1 267 0 discriminator 3
	orl	%edx, %esi	# tmp953, tmp955
	orl	%esi, %r10d	# tmp955, chain_eq_mask
# src/sabd-enclave.c:269:       uint16_t chain_result = in_hashed_ab_jids_result_bits[hash_slot_idx] & 0xFFF;
	.loc 1 269 0 discriminator 3
	andw	$4095, %r15w	#, chain_result
# src/sabd-enclave.c:270:       ab_jid_result |= chain_eq_mask & chain_result;
	.loc 1 270 0 discriminator 3
	andl	%r10d, %r15d	# chain_eq_mask, tmp958
.LVL142:
	orl	%r15d, %eax	# tmp958, ab_jid_result
.LVL143:
.LBE1343:
# src/sabd-enclave.c:263:     for (hash_slot_idx_t hash_slot_idx = 0; likely(hash_slot_idx < hash_table_slot_count); hash_slot_idx++) {
	.loc 1 263 0 discriminator 3
	cmpq	%r9, %rcx	# _835, ivtmp.99
	jne	.L28	#,
.LVL144:
.L114:
	testw	%ax, %ax	# ab_jid_result
	setne	%al	#, tmp767
	addq	$8, %r13	#, ivtmp.105
.LVL145:
	addq	$1, %r11	#, ivtmp.106
.LVL146:
.LBE1289:
# src/sabd-enclave.c:273:     in_ab_jids_result[ab_jid_idx] = !!ab_jid_result;
	.loc 1 273 0
	movb	%al, -1(%r11)	# tmp767, *_161
.LVL147:
.LBE1286:
# src/sabd-enclave.c:258:   for (hash_slot_idx_t ab_jid_idx = 0; likely(ab_jid_idx < ab_jid_count); ab_jid_idx++) {
	.loc 1 258 0
	cmpq	%rbx, %r13	# _697, ivtmp.105
	jne	.L29	#,
	movl	-80(%rbp), %r11d	# %sfp,
.L27:
.LVL148:
	leaq	(%r11,%r11,2), %rbx	#, tmp890
	movq	-280(%rbp), %rdx	# %sfp, ivtmp.93
	movq	%r12, %rax	# hashed_ab_jids, ivtmp.94
.LBE1285:
.LBB1344:
.LBB1345:
# src/sabd-enclave.c:280:     chain_blocks[0] = _mm256_setzero_si256();
	.loc 1 280 0
	vpxor	%xmm10, %xmm10, %xmm10	# tmp768
	movabsq	$192153584101141163, %r9	#, tmp920
	salq	$5, %rbx	#, tmp891
	addq	%rbx, %r14	# tmp891, _735
	movq	%r14, %r13	# _735, tmp916
	subq	%r12, %r13	# hashed_ab_jids, tmp916
	subq	$96, %r13	#, tmp917
	shrq	$5, %r13	#, tmp918
	imulq	%r9, %r13	# tmp920, tmp919
	addq	$1, %r13	#, tmp922
	andl	$7, %r13d	#, tmp923
	je	.L30	#,
	cmpq	$1, %r13	#, tmp923
	je	.L87	#,
	cmpq	$2, %r13	#, tmp923
	je	.L88	#,
	cmpq	$3, %r13	#, tmp923
	je	.L89	#,
	cmpq	$4, %r13	#, tmp923
	je	.L90	#,
	cmpq	$5, %r13	#, tmp923
	je	.L91	#,
	cmpq	$6, %r13	#, tmp923
	je	.L92	#,
.LVL149:
# src/sabd-enclave.c:278:     in_hashed_ab_jids_result_bits[hash_slot_idx] = 0x8000;
	.loc 1 278 0
	movl	$-32768, %r8d	#,
	leaq	2(%rdx), %rdx	#, ivtmp.93
	leaq	96(%r12), %rax	#, ivtmp.94
	movw	%r8w, -2(%rdx)	#, *_168
.LVL150:
# src/sabd-enclave.c:280:     chain_blocks[0] = _mm256_setzero_si256();
	.loc 1 280 0
	vmovdqa	%ymm10, (%r12)	# tmp768, *chain_blocks_272
# src/sabd-enclave.c:281:     chain_blocks[1] = _mm256_setzero_si256();
	.loc 1 281 0
	vmovdqa	%ymm10, 32(%r12)	# tmp768, MEM[(volatile __m256i * {ref-all})chain_blocks_272 + 32B]
# src/sabd-enclave.c:282:     chain_blocks[2] = _mm256_setzero_si256();
	.loc 1 282 0
	vmovdqa	%ymm10, 64(%r12)	# tmp768, MEM[(volatile __m256i * {ref-all})chain_blocks_272 + 64B]
.LVL151:
.L92:
# src/sabd-enclave.c:278:     in_hashed_ab_jids_result_bits[hash_slot_idx] = 0x8000;
	.loc 1 278 0
	movl	$-32768, %ecx	#,
	addq	$2, %rdx	#, ivtmp.93
	addq	$96, %rax	#, ivtmp.94
	movw	%cx, -2(%rdx)	#, *_168
.LVL152:
# src/sabd-enclave.c:280:     chain_blocks[0] = _mm256_setzero_si256();
	.loc 1 280 0
	vmovdqa	%ymm10, -96(%rax)	# tmp768, *chain_blocks_272
# src/sabd-enclave.c:281:     chain_blocks[1] = _mm256_setzero_si256();
	.loc 1 281 0
	vmovdqa	%ymm10, -64(%rax)	# tmp768, MEM[(volatile __m256i * {ref-all})chain_blocks_272 + 32B]
# src/sabd-enclave.c:282:     chain_blocks[2] = _mm256_setzero_si256();
	.loc 1 282 0
	vmovdqa	%ymm10, -32(%rax)	# tmp768, MEM[(volatile __m256i * {ref-all})chain_blocks_272 + 64B]
.LVL153:
.L91:
# src/sabd-enclave.c:278:     in_hashed_ab_jids_result_bits[hash_slot_idx] = 0x8000;
	.loc 1 278 0
	movl	$-32768, %edi	#,
	addq	$2, %rdx	#, ivtmp.93
	addq	$96, %rax	#, ivtmp.94
	movw	%di, -2(%rdx)	#, *_168
# src/sabd-enclave.c:280:     chain_blocks[0] = _mm256_setzero_si256();
	.loc 1 280 0
	vmovdqa	%ymm10, -96(%rax)	# tmp768, *chain_blocks_272
# src/sabd-enclave.c:281:     chain_blocks[1] = _mm256_setzero_si256();
	.loc 1 281 0
	vmovdqa	%ymm10, -64(%rax)	# tmp768, MEM[(volatile __m256i * {ref-all})chain_blocks_272 + 32B]
# src/sabd-enclave.c:282:     chain_blocks[2] = _mm256_setzero_si256();
	.loc 1 282 0
	vmovdqa	%ymm10, -32(%rax)	# tmp768, MEM[(volatile __m256i * {ref-all})chain_blocks_272 + 64B]
.L90:
# src/sabd-enclave.c:278:     in_hashed_ab_jids_result_bits[hash_slot_idx] = 0x8000;
	.loc 1 278 0
	movl	$-32768, %r10d	#,
	addq	$2, %rdx	#, ivtmp.93
	addq	$96, %rax	#, ivtmp.94
	movw	%r10w, -2(%rdx)	#, *_168
# src/sabd-enclave.c:280:     chain_blocks[0] = _mm256_setzero_si256();
	.loc 1 280 0
	vmovdqa	%ymm10, -96(%rax)	# tmp768, *chain_blocks_272
# src/sabd-enclave.c:281:     chain_blocks[1] = _mm256_setzero_si256();
	.loc 1 281 0
	vmovdqa	%ymm10, -64(%rax)	# tmp768, MEM[(volatile __m256i * {ref-all})chain_blocks_272 + 32B]
# src/sabd-enclave.c:282:     chain_blocks[2] = _mm256_setzero_si256();
	.loc 1 282 0
	vmovdqa	%ymm10, -32(%rax)	# tmp768, MEM[(volatile __m256i * {ref-all})chain_blocks_272 + 64B]
.L89:
# src/sabd-enclave.c:278:     in_hashed_ab_jids_result_bits[hash_slot_idx] = 0x8000;
	.loc 1 278 0
	movl	$-32768, %esi	#,
	addq	$2, %rdx	#, ivtmp.93
	addq	$96, %rax	#, ivtmp.94
	movw	%si, -2(%rdx)	#, *_168
# src/sabd-enclave.c:280:     chain_blocks[0] = _mm256_setzero_si256();
	.loc 1 280 0
	vmovdqa	%ymm10, -96(%rax)	# tmp768, *chain_blocks_272
# src/sabd-enclave.c:281:     chain_blocks[1] = _mm256_setzero_si256();
	.loc 1 281 0
	vmovdqa	%ymm10, -64(%rax)	# tmp768, MEM[(volatile __m256i * {ref-all})chain_blocks_272 + 32B]
# src/sabd-enclave.c:282:     chain_blocks[2] = _mm256_setzero_si256();
	.loc 1 282 0
	vmovdqa	%ymm10, -32(%rax)	# tmp768, MEM[(volatile __m256i * {ref-all})chain_blocks_272 + 64B]
.L88:
# src/sabd-enclave.c:278:     in_hashed_ab_jids_result_bits[hash_slot_idx] = 0x8000;
	.loc 1 278 0
	movl	$-32768, %r15d	#,
	addq	$2, %rdx	#, ivtmp.93
	addq	$96, %rax	#, ivtmp.94
	movw	%r15w, -2(%rdx)	#, *_168
# src/sabd-enclave.c:280:     chain_blocks[0] = _mm256_setzero_si256();
	.loc 1 280 0
	vmovdqa	%ymm10, -96(%rax)	# tmp768, *chain_blocks_272
# src/sabd-enclave.c:281:     chain_blocks[1] = _mm256_setzero_si256();
	.loc 1 281 0
	vmovdqa	%ymm10, -64(%rax)	# tmp768, MEM[(volatile __m256i * {ref-all})chain_blocks_272 + 32B]
# src/sabd-enclave.c:282:     chain_blocks[2] = _mm256_setzero_si256();
	.loc 1 282 0
	vmovdqa	%ymm10, -32(%rax)	# tmp768, MEM[(volatile __m256i * {ref-all})chain_blocks_272 + 64B]
.L87:
# src/sabd-enclave.c:278:     in_hashed_ab_jids_result_bits[hash_slot_idx] = 0x8000;
	.loc 1 278 0
	movl	$-32768, %r11d	#,
	addq	$96, %rax	#, ivtmp.94
	addq	$2, %rdx	#, ivtmp.93
	movw	%r11w, -2(%rdx)	#, *_168
# src/sabd-enclave.c:280:     chain_blocks[0] = _mm256_setzero_si256();
	.loc 1 280 0
	vmovdqa	%ymm10, -96(%rax)	# tmp768, *chain_blocks_272
# src/sabd-enclave.c:281:     chain_blocks[1] = _mm256_setzero_si256();
	.loc 1 281 0
	vmovdqa	%ymm10, -64(%rax)	# tmp768, MEM[(volatile __m256i * {ref-all})chain_blocks_272 + 32B]
# src/sabd-enclave.c:282:     chain_blocks[2] = _mm256_setzero_si256();
	.loc 1 282 0
	vmovdqa	%ymm10, -32(%rax)	# tmp768, MEM[(volatile __m256i * {ref-all})chain_blocks_272 + 64B]
.LBE1345:
# src/sabd-enclave.c:277:   for (hash_slot_idx_t hash_slot_idx = 0; likely(hash_slot_idx < hash_table_slot_count); hash_slot_idx++) {
	.loc 1 277 0
	cmpq	%rax, %r14	# ivtmp.94, _735
	je	.L113	#,
.L30:
.LBB1346:
# src/sabd-enclave.c:278:     in_hashed_ab_jids_result_bits[hash_slot_idx] = 0x8000;
	.loc 1 278 0 discriminator 3
	movl	$-32768, %ebx	#,
	movl	$-32768, %r13d	#,
	movl	$-32768, %ecx	#,
	movl	$-32768, %r9d	#,
	movl	$-32768, %r8d	#,
	movl	$-32768, %edi	#,
	movl	$-32768, %esi	#,
	movw	%bx, (%rdx)	#, *_168
	movl	$-32768, %r10d	#,
# src/sabd-enclave.c:280:     chain_blocks[0] = _mm256_setzero_si256();
	.loc 1 280 0 discriminator 3
	vmovdqa	%ymm10, (%rax)	# tmp768, *chain_blocks_272
	addq	$768, %rax	#, ivtmp.94
	addq	$16, %rdx	#, ivtmp.93
# src/sabd-enclave.c:281:     chain_blocks[1] = _mm256_setzero_si256();
	.loc 1 281 0 discriminator 3
	vmovdqa	%ymm10, -736(%rax)	# tmp768, MEM[(volatile __m256i * {ref-all})chain_blocks_272 + 32B]
# src/sabd-enclave.c:282:     chain_blocks[2] = _mm256_setzero_si256();
	.loc 1 282 0 discriminator 3
	vmovdqa	%ymm10, -704(%rax)	# tmp768, MEM[(volatile __m256i * {ref-all})chain_blocks_272 + 64B]
# src/sabd-enclave.c:278:     in_hashed_ab_jids_result_bits[hash_slot_idx] = 0x8000;
	.loc 1 278 0 discriminator 3
	movw	%r13w, -14(%rdx)	#, *_168
# src/sabd-enclave.c:280:     chain_blocks[0] = _mm256_setzero_si256();
	.loc 1 280 0 discriminator 3
	vmovdqa	%ymm10, -672(%rax)	# tmp768, *chain_blocks_272
# src/sabd-enclave.c:281:     chain_blocks[1] = _mm256_setzero_si256();
	.loc 1 281 0 discriminator 3
	vmovdqa	%ymm10, -640(%rax)	# tmp768, MEM[(volatile __m256i * {ref-all})chain_blocks_272 + 32B]
# src/sabd-enclave.c:282:     chain_blocks[2] = _mm256_setzero_si256();
	.loc 1 282 0 discriminator 3
	vmovdqa	%ymm10, -608(%rax)	# tmp768, MEM[(volatile __m256i * {ref-all})chain_blocks_272 + 64B]
# src/sabd-enclave.c:278:     in_hashed_ab_jids_result_bits[hash_slot_idx] = 0x8000;
	.loc 1 278 0 discriminator 3
	movw	%r9w, -12(%rdx)	#, *_168
# src/sabd-enclave.c:280:     chain_blocks[0] = _mm256_setzero_si256();
	.loc 1 280 0 discriminator 3
	vmovdqa	%ymm10, -576(%rax)	# tmp768, *chain_blocks_272
# src/sabd-enclave.c:281:     chain_blocks[1] = _mm256_setzero_si256();
	.loc 1 281 0 discriminator 3
	vmovdqa	%ymm10, -544(%rax)	# tmp768, MEM[(volatile __m256i * {ref-all})chain_blocks_272 + 32B]
# src/sabd-enclave.c:282:     chain_blocks[2] = _mm256_setzero_si256();
	.loc 1 282 0 discriminator 3
	vmovdqa	%ymm10, -512(%rax)	# tmp768, MEM[(volatile __m256i * {ref-all})chain_blocks_272 + 64B]
# src/sabd-enclave.c:278:     in_hashed_ab_jids_result_bits[hash_slot_idx] = 0x8000;
	.loc 1 278 0 discriminator 3
	movw	%r8w, -10(%rdx)	#, *_168
# src/sabd-enclave.c:280:     chain_blocks[0] = _mm256_setzero_si256();
	.loc 1 280 0 discriminator 3
	vmovdqa	%ymm10, -480(%rax)	# tmp768, *chain_blocks_272
# src/sabd-enclave.c:281:     chain_blocks[1] = _mm256_setzero_si256();
	.loc 1 281 0 discriminator 3
	vmovdqa	%ymm10, -448(%rax)	# tmp768, MEM[(volatile __m256i * {ref-all})chain_blocks_272 + 32B]
# src/sabd-enclave.c:282:     chain_blocks[2] = _mm256_setzero_si256();
	.loc 1 282 0 discriminator 3
	vmovdqa	%ymm10, -416(%rax)	# tmp768, MEM[(volatile __m256i * {ref-all})chain_blocks_272 + 64B]
# src/sabd-enclave.c:278:     in_hashed_ab_jids_result_bits[hash_slot_idx] = 0x8000;
	.loc 1 278 0 discriminator 3
	movw	%cx, -8(%rdx)	#, *_168
# src/sabd-enclave.c:280:     chain_blocks[0] = _mm256_setzero_si256();
	.loc 1 280 0 discriminator 3
	vmovdqa	%ymm10, -384(%rax)	# tmp768, *chain_blocks_272
# src/sabd-enclave.c:281:     chain_blocks[1] = _mm256_setzero_si256();
	.loc 1 281 0 discriminator 3
	vmovdqa	%ymm10, -352(%rax)	# tmp768, MEM[(volatile __m256i * {ref-all})chain_blocks_272 + 32B]
# src/sabd-enclave.c:282:     chain_blocks[2] = _mm256_setzero_si256();
	.loc 1 282 0 discriminator 3
	vmovdqa	%ymm10, -320(%rax)	# tmp768, MEM[(volatile __m256i * {ref-all})chain_blocks_272 + 64B]
# src/sabd-enclave.c:278:     in_hashed_ab_jids_result_bits[hash_slot_idx] = 0x8000;
	.loc 1 278 0 discriminator 3
	movw	%di, -6(%rdx)	#, *_168
# src/sabd-enclave.c:280:     chain_blocks[0] = _mm256_setzero_si256();
	.loc 1 280 0 discriminator 3
	vmovdqa	%ymm10, -288(%rax)	# tmp768, *chain_blocks_272
# src/sabd-enclave.c:281:     chain_blocks[1] = _mm256_setzero_si256();
	.loc 1 281 0 discriminator 3
	vmovdqa	%ymm10, -256(%rax)	# tmp768, MEM[(volatile __m256i * {ref-all})chain_blocks_272 + 32B]
# src/sabd-enclave.c:282:     chain_blocks[2] = _mm256_setzero_si256();
	.loc 1 282 0 discriminator 3
	vmovdqa	%ymm10, -224(%rax)	# tmp768, MEM[(volatile __m256i * {ref-all})chain_blocks_272 + 64B]
# src/sabd-enclave.c:278:     in_hashed_ab_jids_result_bits[hash_slot_idx] = 0x8000;
	.loc 1 278 0 discriminator 3
	movw	%r10w, -4(%rdx)	#, *_168
# src/sabd-enclave.c:280:     chain_blocks[0] = _mm256_setzero_si256();
	.loc 1 280 0 discriminator 3
	vmovdqa	%ymm10, -192(%rax)	# tmp768, *chain_blocks_272
# src/sabd-enclave.c:281:     chain_blocks[1] = _mm256_setzero_si256();
	.loc 1 281 0 discriminator 3
	vmovdqa	%ymm10, -160(%rax)	# tmp768, MEM[(volatile __m256i * {ref-all})chain_blocks_272 + 32B]
# src/sabd-enclave.c:282:     chain_blocks[2] = _mm256_setzero_si256();
	.loc 1 282 0 discriminator 3
	vmovdqa	%ymm10, -128(%rax)	# tmp768, MEM[(volatile __m256i * {ref-all})chain_blocks_272 + 64B]
# src/sabd-enclave.c:278:     in_hashed_ab_jids_result_bits[hash_slot_idx] = 0x8000;
	.loc 1 278 0 discriminator 3
	movw	%si, -2(%rdx)	#, *_168
# src/sabd-enclave.c:280:     chain_blocks[0] = _mm256_setzero_si256();
	.loc 1 280 0 discriminator 3
	vmovdqa	%ymm10, -96(%rax)	# tmp768, *chain_blocks_272
# src/sabd-enclave.c:281:     chain_blocks[1] = _mm256_setzero_si256();
	.loc 1 281 0 discriminator 3
	vmovdqa	%ymm10, -64(%rax)	# tmp768, MEM[(volatile __m256i * {ref-all})chain_blocks_272 + 32B]
# src/sabd-enclave.c:282:     chain_blocks[2] = _mm256_setzero_si256();
	.loc 1 282 0 discriminator 3
	vmovdqa	%ymm10, -32(%rax)	# tmp768, MEM[(volatile __m256i * {ref-all})chain_blocks_272 + 64B]
.LBE1346:
# src/sabd-enclave.c:277:   for (hash_slot_idx_t hash_slot_idx = 0; likely(hash_slot_idx < hash_table_slot_count); hash_slot_idx++) {
	.loc 1 277 0 discriminator 3
	cmpq	%rax, %r14	# ivtmp.94, _735
	jne	.L30	#,
.L113:
.LBE1344:
# src/sabd-enclave.c:285:   free((void *) in_hashed_ab_jids_result_bits);
	.loc 1 285 0
	movq	-280(%rbp), %rdi	# %sfp,
	vzeroupper
	call	free@PLT	#
.LVL154:
# src/sabd-enclave.c:286:   free(hashed_ab_jids);
	.loc 1 286 0
	movq	%r12, %rdi	# hashed_ab_jids,
	call	free@PLT	#
.LVL155:
# src/sabd-enclave.c:287:   return SGX_SUCCESS;
	.loc 1 287 0
	xorl	%eax, %eax	# <retval>
.LVL156:
.L118:
# src/sabd-enclave.c:288: }
	.loc 1 288 0
	addq	$288, %rsp	#,
	popq	%rbx	#
	popq	%rdx	#
	.cfi_remember_state
	.cfi_def_cfa 10, 0
	popq	%r12	#
	popq	%r13	#
	popq	%r14	#
	popq	%r15	#
	popq	%rbp	#
	leaq	-8(%rdx), %rsp	#,
	.cfi_def_cfa 7, 8
	ret
.LVL157:
.L125:
	.cfi_restore_state
.LBB1347:
.LBB1229:
# src/sabd-enclave.c:224:       memset_s(hashed_ab_jids, hashed_ab_jids_size, 0, hashed_ab_jids_size);
	.loc 1 224 0
	movq	-288(%rbp), %rsi	# %sfp, _730
	xorl	%edx, %edx	#
	movq	%r9, %rdi	# hashed_ab_jids,
.LVL158:
	movq	%r9, -80(%rbp)	# hashed_ab_jids, %sfp
.LVL159:
	movq	%r8, -224(%rbp)	# tmp898, %sfp
	movq	%rsi, %rcx	# _730,
	vmovdqa	%ymm12, -208(%rbp)	# chain_block_masks$0, %sfp
	vmovdqa	%ymm14, -176(%rbp)	# chain_block_masks$2, %sfp
	vmovdqa	%ymm15, -144(%rbp)	# chain_block_masks$1, %sfp
	vmovapd	%ymm13, -112(%rbp)	# tmp907, %sfp
	vzeroupper
	call	memset_s@PLT	#
.LVL160:
.LBE1229:
# src/sabd-enclave.c:150:   for (uint32_t hash_table_tries = 0; !hash_table_constructed && likely(hash_table_tries < 128); hash_table_tries++) {
	.loc 1 150 0
	subl	$1, -292(%rbp)	#, %sfp
	movq	-80(%rbp), %r9	# %sfp, hashed_ab_jids
	vmovapd	-112(%rbp), %ymm13	# %sfp, tmp907
	vmovdqa	-144(%rbp), %ymm15	# %sfp, chain_block_masks$1
	vmovdqa	-176(%rbp), %ymm14	# %sfp, chain_block_masks$2
	vmovdqa	-208(%rbp), %ymm12	# %sfp, chain_block_masks$0
	movq	-224(%rbp), %r8	# %sfp, tmp898
	jne	.L6	#,
.LVL161:
.L120:
.LBE1347:
# src/sabd-enclave.c:233:     free((void *) in_hashed_ab_jids_result_bits);
	.loc 1 233 0
	movq	-280(%rbp), %rdi	# %sfp,
	movq	%r9, %r12	# hashed_ab_jids, hashed_ab_jids
	vzeroupper
	call	free@PLT	#
.LVL162:
# src/sabd-enclave.c:234:     free(hashed_ab_jids);
	.loc 1 234 0
	movq	%r12, %rdi	# hashed_ab_jids,
	call	free@PLT	#
.LVL163:
# src/sabd-enclave.c:235:     return SGX_ERROR_UNEXPECTED;
	.loc 1 235 0
	movl	$1, %eax	#, <retval>
	jmp	.L118	#
.LVL164:
	.p2align 4,,10
	.p2align 3
.L124:
.LBB1348:
.LBB1230:
.LBB1226:
.LBB970:
.LBB966:
# src/sabd-enclave.c:177:       for (hash_slot_idx_t ab_jid_idx = 0; likely(ab_jid_idx < ab_jid_count); ab_jid_idx++) {
	.loc 1 177 0
	vxorpd	%xmm1, %xmm1, %xmm1	# _236
	vmovapd	.LC3(%rip), %ymm4	#, _819
	vmovapd	.LC4(%rip), %ymm3	#, _817
	vmovapd	%ymm1, %ymm9	#, _265
	vmovapd	%ymm1, %ymm8	#, _264
	vmovapd	.LC5(%rip), %ymm2	#, _815
	jmp	.L12	#
.LVL165:
.L16:
.LBE966:
.LBE970:
.LBE1226:
.LBB1227:
.LBB995:
.LBB975:
# /usr/lib/gcc/x86_64-linux-gnu/7/include/immintrin.h:208:   return __builtin_ia32_rdrand64_step (__P);
	.loc 3 208 0
	rdrand	%rcx	# tmp636
	movl	$1, %esi	#, tmp637
	movq	%rcx, (%r8)	# tmp636,
	cmovc	%esi, %ecx	# tmp636,, tmp637, _813
.LVL166:
.LBE975:
.LBE995:
# src/sabd-enclave.c:155:       if (likely(_rdrand64_step(&hash_salt_64[0])) && likely(_rdrand64_step(&hash_salt_64[1]))) {
	.loc 1 155 0
	testl	%ecx, %ecx	# _813
	je	.L17	#,
.LVL167:
.LBB996:
.LBB986:
# /usr/lib/gcc/x86_64-linux-gnu/7/include/immintrin.h:208:   return __builtin_ia32_rdrand64_step (__P);
	.loc 3 208 0
	rdrand	%rdi	# tmp640
	movq	%rdi, 8(%r8)	# tmp640,
	cmovc	%esi, %edi	# tmp640,, tmp637, _811
.LVL168:
.LBE986:
.LBE996:
# src/sabd-enclave.c:155:       if (likely(_rdrand64_step(&hash_salt_64[0])) && likely(_rdrand64_step(&hash_salt_64[1]))) {
	.loc 1 155 0
	testl	%edi, %edi	# _811
	jne	.L8	#,
.L17:
.LVL169:
.LBB997:
.LBB976:
# /usr/lib/gcc/x86_64-linux-gnu/7/include/immintrin.h:208:   return __builtin_ia32_rdrand64_step (__P);
	.loc 3 208 0
	rdrand	%r10	# tmp643
	movl	$1, %r11d	#, tmp644
	movq	%r10, (%r8)	# tmp643,
	cmovc	%r11d, %r10d	# tmp643,, tmp644, _805
.LVL170:
.LBE976:
.LBE997:
# src/sabd-enclave.c:155:       if (likely(_rdrand64_step(&hash_salt_64[0])) && likely(_rdrand64_step(&hash_salt_64[1]))) {
	.loc 1 155 0
	testl	%r10d, %r10d	# _805
	je	.L18	#,
.LVL171:
.LBB998:
.LBB987:
# /usr/lib/gcc/x86_64-linux-gnu/7/include/immintrin.h:208:   return __builtin_ia32_rdrand64_step (__P);
	.loc 3 208 0
	rdrand	%rax	# tmp647
	movq	%rax, 8(%r8)	# tmp647,
	cmovc	%r11d, %eax	# tmp647,, tmp644, _803
.LVL172:
.LBE987:
.LBE998:
# src/sabd-enclave.c:155:       if (likely(_rdrand64_step(&hash_salt_64[0])) && likely(_rdrand64_step(&hash_salt_64[1]))) {
	.loc 1 155 0
	testl	%eax, %eax	# _803
	jne	.L8	#,
.L18:
.LVL173:
.LBB999:
.LBB977:
# /usr/lib/gcc/x86_64-linux-gnu/7/include/immintrin.h:208:   return __builtin_ia32_rdrand64_step (__P);
	.loc 3 208 0
	rdrand	%rcx	# tmp650
	movl	$1, %edx	#, tmp651
	movq	%rcx, (%r8)	# tmp650,
	cmovc	%edx, %ecx	# tmp650,, tmp651, _797
.LVL174:
.LBE977:
.LBE999:
# src/sabd-enclave.c:155:       if (likely(_rdrand64_step(&hash_salt_64[0])) && likely(_rdrand64_step(&hash_salt_64[1]))) {
	.loc 1 155 0
	testl	%ecx, %ecx	# _797
	je	.L19	#,
.LVL175:
.LBB1000:
.LBB988:
# /usr/lib/gcc/x86_64-linux-gnu/7/include/immintrin.h:208:   return __builtin_ia32_rdrand64_step (__P);
	.loc 3 208 0
	rdrand	%rsi	# tmp654
	movq	%rsi, 8(%r8)	# tmp654,
	cmovc	%edx, %esi	# tmp654,, tmp651, _795
.LVL176:
.LBE988:
.LBE1000:
# src/sabd-enclave.c:155:       if (likely(_rdrand64_step(&hash_salt_64[0])) && likely(_rdrand64_step(&hash_salt_64[1]))) {
	.loc 1 155 0
	testl	%esi, %esi	# _795
	jne	.L8	#,
.L19:
.LVL177:
.LBB1001:
.LBB978:
# /usr/lib/gcc/x86_64-linux-gnu/7/include/immintrin.h:208:   return __builtin_ia32_rdrand64_step (__P);
	.loc 3 208 0
	rdrand	%rdi	# tmp657
	movl	$1, %r10d	#, tmp658
	movq	%rdi, (%r8)	# tmp657,
	cmovc	%r10d, %edi	# tmp657,, tmp658, _789
.LVL178:
.LBE978:
.LBE1001:
# src/sabd-enclave.c:155:       if (likely(_rdrand64_step(&hash_salt_64[0])) && likely(_rdrand64_step(&hash_salt_64[1]))) {
	.loc 1 155 0
	testl	%edi, %edi	# _789
	je	.L20	#,
.LVL179:
.LBB1002:
.LBB989:
# /usr/lib/gcc/x86_64-linux-gnu/7/include/immintrin.h:208:   return __builtin_ia32_rdrand64_step (__P);
	.loc 3 208 0
	rdrand	%r11	# tmp661
	movq	%r11, 8(%r8)	# tmp661,
	cmovc	%r10d, %r11d	# tmp661,, tmp658, _787
.LVL180:
.LBE989:
.LBE1002:
# src/sabd-enclave.c:155:       if (likely(_rdrand64_step(&hash_salt_64[0])) && likely(_rdrand64_step(&hash_salt_64[1]))) {
	.loc 1 155 0
	testl	%r11d, %r11d	# _787
	jne	.L8	#,
.L20:
.LVL181:
.LBB1003:
.LBB979:
# /usr/lib/gcc/x86_64-linux-gnu/7/include/immintrin.h:208:   return __builtin_ia32_rdrand64_step (__P);
	.loc 3 208 0
	rdrand	%rax	# tmp664
	movl	$1, %ecx	#, tmp665
	movq	%rax, (%r8)	# tmp664,
	cmovc	%ecx, %eax	# tmp664,, tmp665, _768
.LVL182:
.LBE979:
.LBE1003:
# src/sabd-enclave.c:155:       if (likely(_rdrand64_step(&hash_salt_64[0])) && likely(_rdrand64_step(&hash_salt_64[1]))) {
	.loc 1 155 0
	testl	%eax, %eax	# _768
	je	.L21	#,
.LVL183:
.LBB1004:
.LBB990:
# /usr/lib/gcc/x86_64-linux-gnu/7/include/immintrin.h:208:   return __builtin_ia32_rdrand64_step (__P);
	.loc 3 208 0
	rdrand	%rdx	# tmp668
	movq	%rdx, 8(%r8)	# tmp668,
	cmovc	%ecx, %edx	# tmp668,, tmp665, _766
.LVL184:
.LBE990:
.LBE1004:
# src/sabd-enclave.c:155:       if (likely(_rdrand64_step(&hash_salt_64[0])) && likely(_rdrand64_step(&hash_salt_64[1]))) {
	.loc 1 155 0
	testl	%edx, %edx	# _766
	jne	.L8	#,
.L21:
.LVL185:
.LBB1005:
.LBB980:
# /usr/lib/gcc/x86_64-linux-gnu/7/include/immintrin.h:208:   return __builtin_ia32_rdrand64_step (__P);
	.loc 3 208 0
	rdrand	%rsi	# tmp671
	movl	$1, %edi	#, tmp672
	movq	%rsi, (%r8)	# tmp671,
	cmovc	%edi, %esi	# tmp671,, tmp672, _760
.LVL186:
.LBE980:
.LBE1005:
# src/sabd-enclave.c:155:       if (likely(_rdrand64_step(&hash_salt_64[0])) && likely(_rdrand64_step(&hash_salt_64[1]))) {
	.loc 1 155 0
	testl	%esi, %esi	# _760
	je	.L22	#,
.LVL187:
.LBB1006:
.LBB991:
# /usr/lib/gcc/x86_64-linux-gnu/7/include/immintrin.h:208:   return __builtin_ia32_rdrand64_step (__P);
	.loc 3 208 0
	rdrand	%r10	# tmp675
	movq	%r10, 8(%r8)	# tmp675,
	cmovc	%edi, %r10d	# tmp675,, tmp672, _758
.LVL188:
.LBE991:
.LBE1006:
# src/sabd-enclave.c:155:       if (likely(_rdrand64_step(&hash_salt_64[0])) && likely(_rdrand64_step(&hash_salt_64[1]))) {
	.loc 1 155 0
	testl	%r10d, %r10d	# _758
	jne	.L8	#,
.L22:
.LVL189:
.LBB1007:
.LBB981:
# /usr/lib/gcc/x86_64-linux-gnu/7/include/immintrin.h:208:   return __builtin_ia32_rdrand64_step (__P);
	.loc 3 208 0
	rdrand	%r11	# tmp678
	movl	$1, %ecx	#, tmp679
	movq	%r11, (%r8)	# tmp678,
	cmovc	%ecx, %r11d	# tmp678,, tmp679, _752
.LVL190:
.LBE981:
.LBE1007:
# src/sabd-enclave.c:155:       if (likely(_rdrand64_step(&hash_salt_64[0])) && likely(_rdrand64_step(&hash_salt_64[1]))) {
	.loc 1 155 0
	testl	%r11d, %r11d	# _752
	je	.L23	#,
.LVL191:
.LBB1008:
.LBB992:
# /usr/lib/gcc/x86_64-linux-gnu/7/include/immintrin.h:208:   return __builtin_ia32_rdrand64_step (__P);
	.loc 3 208 0
	rdrand	%rax	# tmp682
	movq	%rax, 8(%r8)	# tmp682,
	cmovc	%ecx, %eax	# tmp682,, tmp679, _750
.LVL192:
.LBE992:
.LBE1008:
# src/sabd-enclave.c:155:       if (likely(_rdrand64_step(&hash_salt_64[0])) && likely(_rdrand64_step(&hash_salt_64[1]))) {
	.loc 1 155 0
	testl	%eax, %eax	# _750
	jne	.L8	#,
.L23:
.LVL193:
.LBB1009:
.LBB982:
# /usr/lib/gcc/x86_64-linux-gnu/7/include/immintrin.h:208:   return __builtin_ia32_rdrand64_step (__P);
	.loc 3 208 0
	rdrand	%rsi	# tmp685
	movl	$1, %edx	#, tmp686
	movq	%rsi, (%r8)	# tmp685,
	cmovc	%edx, %esi	# tmp685,, tmp686, _744
.LVL194:
.LBE982:
.LBE1009:
# src/sabd-enclave.c:155:       if (likely(_rdrand64_step(&hash_salt_64[0])) && likely(_rdrand64_step(&hash_salt_64[1]))) {
	.loc 1 155 0
	testl	%esi, %esi	# _744
	je	.L24	#,
.LVL195:
.LBB1010:
.LBB993:
# /usr/lib/gcc/x86_64-linux-gnu/7/include/immintrin.h:208:   return __builtin_ia32_rdrand64_step (__P);
	.loc 3 208 0
	rdrand	%rdi	# tmp689
	movq	%rdi, 8(%r8)	# tmp689,
	cmovc	%edx, %edi	# tmp689,, tmp686, _742
.LVL196:
.LBE993:
.LBE1010:
# src/sabd-enclave.c:155:       if (likely(_rdrand64_step(&hash_salt_64[0])) && likely(_rdrand64_step(&hash_salt_64[1]))) {
	.loc 1 155 0
	testl	%edi, %edi	# _742
	jne	.L8	#,
.L24:
.LVL197:
.LBB1011:
.LBB983:
# /usr/lib/gcc/x86_64-linux-gnu/7/include/immintrin.h:208:   return __builtin_ia32_rdrand64_step (__P);
	.loc 3 208 0
	rdrand	%r10	# tmp692
	movl	$1, %r11d	#, tmp693
	movq	%r10, (%r8)	# tmp692,
	cmovc	%r11d, %r10d	# tmp692,, tmp693, _275
.LVL198:
.LBE983:
.LBE1011:
# src/sabd-enclave.c:155:       if (likely(_rdrand64_step(&hash_salt_64[0])) && likely(_rdrand64_step(&hash_salt_64[1]))) {
	.loc 1 155 0
	testl	%r10d, %r10d	# _275
	je	.L120	#,
.LVL199:
.LBB1012:
.LBB994:
# /usr/lib/gcc/x86_64-linux-gnu/7/include/immintrin.h:208:   return __builtin_ia32_rdrand64_step (__P);
	.loc 3 208 0
	rdrand	%rcx	# tmp568
	movq	%rcx, 8(%r8)	# tmp568,
	cmovc	%r11d, %ecx	# tmp568,, tmp693, _273
.LVL200:
.LBE994:
.LBE1012:
# src/sabd-enclave.c:155:       if (likely(_rdrand64_step(&hash_salt_64[0])) && likely(_rdrand64_step(&hash_salt_64[1]))) {
	.loc 1 155 0
	testl	%ecx, %ecx	# _273
	jne	.L8	#,
	jmp	.L120	#
.LVL201:
	.p2align 4,,10
	.p2align 3
.L33:
.LBE1227:
.LBE1230:
.LBE1348:
# src/sabd-enclave.c:117:     return SGX_ERROR_INVALID_PARAMETER;
	.loc 1 117 0
	movl	$2, %eax	#, <retval>
	jmp	.L118	#
.LVL202:
.L122:
# src/sabd-enclave.c:113:   if (unlikely(ab_jid_count == 0)) {
	.loc 1 113 0
	testl	%ecx, %ecx	# ab_jid_count
	je	.L32	#,
	movq	$96, -288(%rbp)	#, %sfp
	movl	$1, %r15d	#, _727
# src/sabd-enclave.c:110:   uint32_t hash_table_order = likely(ab_jid_count > 1)? _bit_scan_reverse(ab_jid_count - 1) + 1 : 0;
	.loc 1 110 0
	xorl	%ebx, %ebx	# iftmp.0_98
	jmp	.L4	#
.LVL203:
.L34:
# src/sabd-enclave.c:129:     return SGX_ERROR_OUT_OF_MEMORY;
	.loc 1 129 0
	movl	$3, %eax	#, <retval>
.LVL204:
	jmp	.L118	#
.LVL205:
.L123:
# src/sabd-enclave.c:136:     free(hashed_ab_jids);
	.loc 1 136 0
	movq	%r12, %rdi	# hashed_ab_jids,
	call	free@PLT	#
.LVL206:
# src/sabd-enclave.c:137:     return SGX_ERROR_OUT_OF_MEMORY;
	.loc 1 137 0
	movl	$3, %eax	#, <retval>
	jmp	.L118	#
.LVL207:
.L32:
# src/sabd-enclave.c:114:     return SGX_SUCCESS;
	.loc 1 114 0
	xorl	%eax, %eax	# <retval>
	jmp	.L118	#
	.cfi_endproc
.LFE5015:
	.size	sabd_lookup_hash, .-sabd_lookup_hash
	.p2align 4,,15
	.globl	sgxsd_enclave_server_init
	.hidden	sgxsd_enclave_server_init
	.type	sgxsd_enclave_server_init, @function
sgxsd_enclave_server_init:
.LFB5016:
	.loc 1 307 0
	.cfi_startproc
.LVL208:
# src/sabd-enclave.c:309:     return SGX_ERROR_INVALID_PARAMETER;
	.loc 1 309 0
	movl	$2, %eax	#, <retval>
# src/sabd-enclave.c:308:   if (p_args == NULL) {
	.loc 1 308 0
	testq	%rdi, %rdi	# p_args
	je	.L134	#,
# src/sabd-enclave.c:307: sgx_status_t sgxsd_enclave_server_init(const sabd_start_args_t *p_args, sabd_state_t **pp_state) {
	.loc 1 307 0
	pushq	%r13	#
	.cfi_def_cfa_offset 16
	.cfi_offset 13, -16
	movq	%rsi, %r13	# pp_state, pp_state
	pushq	%r12	#
	.cfi_def_cfa_offset 24
	.cfi_offset 12, -24
	pushq	%rbp	#
	.cfi_def_cfa_offset 32
	.cfi_offset 6, -32
	pushq	%rbx	#
	.cfi_def_cfa_offset 40
	.cfi_offset 3, -40
	movq	%rdi, %rbx	# p_args, p_args
	subq	$8, %rsp	#,
	.cfi_def_cfa_offset 48
# src/sabd-enclave.c:313:   size_t state_size = sizeof(sabd_state_t) + sizeof(jid_t) * p_args->max_ab_jids;
	.loc 1 313 0
	movl	(%rdi), %eax	# p_args_7(D)->max_ab_jids, p_args_7(D)->max_ab_jids
# src/sabd-enclave.c:314:   sabd_state_t *p_state = memalign(CACHE_LINE_SIZE, state_size);
	.loc 1 314 0
	movl	$64, %edi	#,
.LVL209:
# src/sabd-enclave.c:313:   size_t state_size = sizeof(sabd_state_t) + sizeof(jid_t) * p_args->max_ab_jids;
	.loc 1 313 0
	leaq	64(,%rax,8), %r12	#, state_size
.LVL210:
# src/sabd-enclave.c:314:   sabd_state_t *p_state = memalign(CACHE_LINE_SIZE, state_size);
	.loc 1 314 0
	movq	%r12, %rsi	# state_size,
.LVL211:
	call	memalign@PLT	#
.LVL212:
	movq	%rax, %rbp	#, p_state
.LVL213:
# src/sabd-enclave.c:316:     return SGX_ERROR_OUT_OF_MEMORY;
	.loc 1 316 0
	movl	$3, %eax	#, <retval>
.LVL214:
# src/sabd-enclave.c:315:   if (p_state == NULL) {
	.loc 1 315 0
	testq	%rbp, %rbp	# p_state
	je	.L132	#,
# src/sabd-enclave.c:318:   memset_s(p_state, state_size, 0, state_size);
	.loc 1 318 0
	xorl	%edx, %edx	#
	movq	%r12, %rcx	# state_size,
	movq	%r12, %rsi	# state_size,
	movq	%rbp, %rdi	# p_state,
	call	memset_s@PLT	#
.LVL215:
# src/sabd-enclave.c:322:     .max_ab_jids = p_args->max_ab_jids,
	.loc 1 322 0
	movl	(%rbx), %edx	# p_args_7(D)->max_ab_jids, _4
# src/sabd-enclave.c:319:   *p_state = (sabd_state_t) {
	.loc 1 319 0
	movl	$0, 8(%rbp)	#, p_state_11->ab_jid_count
# src/sabd-enclave.c:325:   return SGX_SUCCESS;
	.loc 1 325 0
	xorl	%eax, %eax	# <retval>
# src/sabd-enclave.c:319:   *p_state = (sabd_state_t) {
	.loc 1 319 0
	movq	$0, 0(%rbp)	#, p_state_11->msgs
	movl	%edx, 12(%rbp)	# _4, p_state_11->max_ab_jids
# src/sabd-enclave.c:324:   *pp_state = p_state;
	.loc 1 324 0
	movq	%rbp, 0(%r13)	# p_state, *pp_state_16(D)
.L132:
# src/sabd-enclave.c:326: }
	.loc 1 326 0
	addq	$8, %rsp	#,
	.cfi_def_cfa_offset 40
	popq	%rbx	#
	.cfi_def_cfa_offset 32
.LVL216:
	popq	%rbp	#
	.cfi_def_cfa_offset 24
.LVL217:
	popq	%r12	#
	.cfi_def_cfa_offset 16
.LVL218:
	popq	%r13	#
	.cfi_def_cfa_offset 8
.LVL219:
	ret
.LVL220:
	.p2align 4,,10
	.p2align 3
.L134:
	.cfi_restore 3
	.cfi_restore 6
	.cfi_restore 12
	.cfi_restore 13
	ret
	.cfi_endproc
.LFE5016:
	.size	sgxsd_enclave_server_init, .-sgxsd_enclave_server_init
	.p2align 4,,15
	.globl	sgxsd_enclave_server_handle_call
	.hidden	sgxsd_enclave_server_handle_call
	.type	sgxsd_enclave_server_handle_call, @function
sgxsd_enclave_server_handle_call:
.LFB5017:
	.loc 1 329 0
	.cfi_startproc
.LVL221:
	pushq	%r14	#
	.cfi_def_cfa_offset 16
	.cfi_offset 14, -16
	pushq	%r13	#
	.cfi_def_cfa_offset 24
	.cfi_offset 13, -24
	pushq	%r12	#
	.cfi_def_cfa_offset 32
	.cfi_offset 12, -32
	pushq	%rbp	#
	.cfi_def_cfa_offset 40
	.cfi_offset 6, -40
	pushq	%rbx	#
	.cfi_def_cfa_offset 48
	.cfi_offset 3, -48
# src/sabd-enclave.c:330:   sabd_state_t *p_state = *pp_state;
	.loc 1 330 0
	movq	(%rcx), %rbx	# *pp_state_19(D), p_state
.LVL222:
# src/sabd-enclave.c:331:   if (p_state == NULL) {
	.loc 1 331 0
	testq	%rbx, %rbx	# p_state
	je	.L139	#,
# src/sabd-enclave.c:334:   if (p_args == NULL) {
	.loc 1 334 0
	testq	%rdi, %rdi	# p_args
	je	.L140	#,
# src/sabd-enclave.c:337:   if (p_args->ab_jid_count == 0 ||
	.loc 1 337 0
	movl	(%rdi), %ecx	# p_args_21(D)->ab_jid_count, _1
.LVL223:
# src/sabd-enclave.c:335:     return SGX_ERROR_INVALID_PARAMETER;
	.loc 1 335 0
	movl	$2, %eax	#, <retval>
# src/sabd-enclave.c:337:   if (p_args->ab_jid_count == 0 ||
	.loc 1 337 0
	testl	%ecx, %ecx	# _1
	je	.L148	#,
# src/sabd-enclave.c:338:       p_args->ab_jid_count > p_state->max_ab_jids - p_state->ab_jid_count ||
	.loc 1 338 0 discriminator 1
	movl	12(%rbx), %r8d	# p_state_20->max_ab_jids, p_state_20->max_ab_jids
	subl	8(%rbx), %r8d	# p_state_20->ab_jid_count, tmp115
# src/sabd-enclave.c:337:   if (p_args->ab_jid_count == 0 ||
	.loc 1 337 0 discriminator 1
	cmpl	%r8d, %ecx	# tmp115, _1
	ja	.L148	#,
# src/sabd-enclave.c:338:       p_args->ab_jid_count > p_state->max_ab_jids - p_state->ab_jid_count ||
	.loc 1 338 0
	testb	$7, %dl	#, msg
	jne	.L148	#,
# src/sabd-enclave.c:340:       msg.size / 8 != p_args->ab_jid_count) {
	.loc 1 340 0
	movl	%edx, %ebp	# msg, tmp118
	shrl	$3, %ebp	#, tmp118
# src/sabd-enclave.c:339:       msg.size % 8 != 0 ||
	.loc 1 339 0
	cmpl	%ebp, %ecx	# tmp118, _1
	je	.L150	#,
.LVL224:
.L148:
# src/sabd-enclave.c:361: }
	.loc 1 361 0
	popq	%rbx	#
	.cfi_remember_state
	.cfi_def_cfa_offset 40
.LVL225:
	popq	%rbp	#
	.cfi_def_cfa_offset 32
	popq	%r12	#
	.cfi_def_cfa_offset 24
.LVL226:
	popq	%r13	#
	.cfi_def_cfa_offset 16
.LVL227:
	popq	%r14	#
	.cfi_def_cfa_offset 8
	ret
.LVL228:
	.p2align 4,,10
	.p2align 3
.L150:
	.cfi_restore_state
# src/sabd-enclave.c:343:   sgx_lfence();
	.loc 1 343 0
	lfence
	movq	%rdi, %rbp	# p_args, p_args
# src/sabd-enclave.c:345:   sabd_msg_t *p_sabd_msg = malloc(sizeof(sabd_msg_t));
	.loc 1 345 0
	movl	$56, %edi	#,
.LVL229:
	movq	%rdx, %r12	# msg, msg
	movq	%rsi, %r13	# msg, msg
	call	malloc@PLT	#
.LVL230:
	movq	%rax, %r14	#, tmp119
.LVL231:
# src/sabd-enclave.c:347:     return SGX_ERROR_OUT_OF_MEMORY;
	.loc 1 347 0
	movl	$3, %eax	#, <retval>
.LVL232:
# src/sabd-enclave.c:346:   if (p_sabd_msg == NULL) {
	.loc 1 346 0
	testq	%r14, %r14	# tmp119
	je	.L148	#,
# src/sabd-enclave.c:351:     .prev = p_state->msgs,
	.loc 1 351 0
	movq	(%rbx), %rax	# p_state_20->msgs, _8
# src/sabd-enclave.c:352:     .ab_jid_count = p_args->ab_jid_count,
	.loc 1 352 0
	movl	0(%rbp), %edx	# p_args_21(D)->ab_jid_count, _7
# src/sabd-enclave.c:349:   *p_sabd_msg = (sabd_msg_t) {
	.loc 1 349 0
	vmovdqu	48(%rsp), %xmm0	# from, from
	vmovdqu	64(%rsp), %xmm1	# from, from
	movq	80(%rsp), %rsi	# from, from
# src/sabd-enclave.c:355:   memcpy(&p_state->ab_jids[p_state->ab_jid_count], msg.data, msg.size);
	.loc 1 355 0
	movl	8(%rbx), %edi	# p_state_20->ab_jid_count, p_state_20->ab_jid_count
# src/sabd-enclave.c:349:   *p_sabd_msg = (sabd_msg_t) {
	.loc 1 349 0
	movl	%edx, 40(%r14)	# _7, p_sabd_msg_24->ab_jid_count
# src/sabd-enclave.c:355:   memcpy(&p_state->ab_jids[p_state->ab_jid_count], msg.data, msg.size);
	.loc 1 355 0
	movl	%r12d, %edx	# msg, msg$size
# src/sabd-enclave.c:349:   *p_sabd_msg = (sabd_msg_t) {
	.loc 1 349 0
	vmovups	%xmm0, (%r14)	# from, p_sabd_msg_24->from
	vmovups	%xmm1, 16(%r14)	# from, p_sabd_msg_24->from
# src/sabd-enclave.c:355:   memcpy(&p_state->ab_jids[p_state->ab_jid_count], msg.data, msg.size);
	.loc 1 355 0
	leaq	64(%rbx,%rdi,8), %rdi	#, tmp126
# src/sabd-enclave.c:349:   *p_sabd_msg = (sabd_msg_t) {
	.loc 1 349 0
	movq	%rsi, 32(%r14)	# from, p_sabd_msg_24->from
# src/sabd-enclave.c:355:   memcpy(&p_state->ab_jids[p_state->ab_jid_count], msg.data, msg.size);
	.loc 1 355 0
	movq	%r13, %rsi	# msg,
# src/sabd-enclave.c:349:   *p_sabd_msg = (sabd_msg_t) {
	.loc 1 349 0
	movq	%rax, 48(%r14)	# _8, p_sabd_msg_24->prev
# src/sabd-enclave.c:354:   p_state->msgs = p_sabd_msg;
	.loc 1 354 0
	movq	%r14, (%rbx)	# tmp119, p_state_20->msgs
# src/sabd-enclave.c:355:   memcpy(&p_state->ab_jids[p_state->ab_jid_count], msg.data, msg.size);
	.loc 1 355 0
	call	memcpy@PLT	#
.LVL233:
# src/sabd-enclave.c:356:   p_state->ab_jid_count += p_sabd_msg->ab_jid_count;
	.loc 1 356 0
	movl	40(%r14), %r9d	# p_sabd_msg_24->ab_jid_count, p_sabd_msg_24->ab_jid_count
	addl	%r9d, 8(%rbx)	# p_sabd_msg_24->ab_jid_count, p_state_20->ab_jid_count
# src/sabd-enclave.c:358:   memset_s(&from, sizeof(from), 0, sizeof(from));
	.loc 1 358 0
	xorl	%edx, %edx	#
	movl	$40, %ecx	#,
	movl	$40, %esi	#,
	leaq	48(%rsp), %rdi	#,
	call	memset_s@PLT	#
.LVL234:
# src/sabd-enclave.c:360:   return SGX_SUCCESS;
	.loc 1 360 0
	xorl	%eax, %eax	# <retval>
	jmp	.L148	#
.LVL235:
	.p2align 4,,10
	.p2align 3
.L139:
# src/sabd-enclave.c:361: }
	.loc 1 361 0
	popq	%rbx	#
	.cfi_remember_state
	.cfi_def_cfa_offset 40
.LVL236:
# src/sabd-enclave.c:332:     return SGX_ERROR_INVALID_STATE;
	.loc 1 332 0
	movl	$5, %eax	#, <retval>
# src/sabd-enclave.c:361: }
	.loc 1 361 0
	popq	%rbp	#
	.cfi_def_cfa_offset 32
	popq	%r12	#
	.cfi_def_cfa_offset 24
	popq	%r13	#
	.cfi_def_cfa_offset 16
	popq	%r14	#
	.cfi_def_cfa_offset 8
	ret
.LVL237:
	.p2align 4,,10
	.p2align 3
.L140:
	.cfi_restore_state
	popq	%rbx	#
	.cfi_def_cfa_offset 40
.LVL238:
# src/sabd-enclave.c:335:     return SGX_ERROR_INVALID_PARAMETER;
	.loc 1 335 0
	movl	$2, %eax	#, <retval>
# src/sabd-enclave.c:361: }
	.loc 1 361 0
	popq	%rbp	#
	.cfi_def_cfa_offset 32
	popq	%r12	#
	.cfi_def_cfa_offset 24
	popq	%r13	#
	.cfi_def_cfa_offset 16
	popq	%r14	#
	.cfi_def_cfa_offset 8
	ret
	.cfi_endproc
.LFE5017:
	.size	sgxsd_enclave_server_handle_call, .-sgxsd_enclave_server_handle_call
	.p2align 4,,15
	.globl	sgxsd_enclave_server_terminate
	.hidden	sgxsd_enclave_server_terminate
	.type	sgxsd_enclave_server_terminate, @function
sgxsd_enclave_server_terminate:
.LFB5018:
	.loc 1 362 0
	.cfi_startproc
.LVL239:
	pushq	%r15	#
	.cfi_def_cfa_offset 16
	.cfi_offset 15, -16
	pushq	%r14	#
	.cfi_def_cfa_offset 24
	.cfi_offset 14, -24
	pushq	%r13	#
	.cfi_def_cfa_offset 32
	.cfi_offset 13, -32
	pushq	%r12	#
	.cfi_def_cfa_offset 40
	.cfi_offset 12, -40
	pushq	%rbp	#
	.cfi_def_cfa_offset 48
	.cfi_offset 6, -48
	pushq	%rbx	#
	.cfi_def_cfa_offset 56
	.cfi_offset 3, -56
	subq	$56, %rsp	#,
	.cfi_def_cfa_offset 112
# src/sabd-enclave.c:363:   if (p_state == NULL) {
	.loc 1 363 0
	testq	%rsi, %rsi	# p_state
	je	.L169	#,
	movq	%rsi, %rbp	# p_state, p_state
	movq	%rdi, %rbx	# p_args, p_args
.LVL240:
# src/sabd-enclave.c:369:   if (p_args == NULL) {
	.loc 1 369 0
	testq	%rdi, %rdi	# p_args
	je	.L195	#,
.LBB1349:
# src/sabd-enclave.c:374:     if (p_args->in_jid_count > SIZE_MAX / sizeof(p_args->in_jids[0]) ||
	.loc 1 374 0
	movabsq	$2305843009213693951, %rax	#, tmp141
# src/sabd-enclave.c:373:     size_t in_jids_size = p_args->in_jid_count * sizeof(p_args->in_jids[0]);
	.loc 1 373 0
	movq	8(%rdi), %r12	# p_args_35(D)->in_jid_count, _1
.LVL241:
# src/sabd-enclave.c:374:     if (p_args->in_jid_count > SIZE_MAX / sizeof(p_args->in_jids[0]) ||
	.loc 1 374 0
	cmpq	%rax, %r12	# tmp141, _1
	jbe	.L157	#,
.LVL242:
.L195:
.LBE1349:
# src/sabd-enclave.c:385:   if (p_state->ab_jid_count != 0) {
	.loc 1 385 0
	movl	8(%rbp), %edi	# p_state_34(D)->ab_jid_count,
.LVL243:
	testl	%edi, %edi	# _69
	jne	.L193	#,
.LVL244:
.L154:
# src/sabd-enclave.c:427:   size_t state_size = sizeof(sabd_state_t) + sizeof(jid_t) * p_state->max_ab_jids;
	.loc 1 427 0
	movl	12(%rbp), %r10d	# p_state_34(D)->max_ab_jids, p_state_34(D)->max_ab_jids
# src/sabd-enclave.c:428:   memset_s(p_state, state_size, 0, state_size);
	.loc 1 428 0
	xorl	%edx, %edx	#
	movq	%rbp, %rdi	# p_state,
# src/sabd-enclave.c:429:   free(p_state);
	.loc 1 429 0
	movl	$2, %r13d	#, <retval>
# src/sabd-enclave.c:427:   size_t state_size = sizeof(sabd_state_t) + sizeof(jid_t) * p_state->max_ab_jids;
	.loc 1 427 0
	leaq	64(,%r10,8), %rsi	#, state_size
.LVL245:
# src/sabd-enclave.c:428:   memset_s(p_state, state_size, 0, state_size);
	.loc 1 428 0
	movq	%rsi, %rcx	# state_size,
	call	memset_s@PLT	#
.LVL246:
# src/sabd-enclave.c:429:   free(p_state);
	.loc 1 429 0
	movq	%rbp, %rdi	# p_state,
	call	free@PLT	#
.LVL247:
.L190:
# src/sabd-enclave.c:438: }
	.loc 1 438 0
	addq	$56, %rsp	#,
	.cfi_remember_state
	.cfi_def_cfa_offset 56
	movl	%r13d, %eax	# <retval>,
	popq	%rbx	#
	.cfi_def_cfa_offset 48
	popq	%rbp	#
	.cfi_def_cfa_offset 40
	popq	%r12	#
	.cfi_def_cfa_offset 32
	popq	%r13	#
	.cfi_def_cfa_offset 24
	popq	%r14	#
	.cfi_def_cfa_offset 16
	popq	%r15	#
	.cfi_def_cfa_offset 8
	ret
.LVL248:
	.p2align 4,,10
	.p2align 3
.L157:
	.cfi_restore_state
.LBB1350:
# src/sabd-enclave.c:375:         sgx_is_outside_enclave(p_args->in_jids, in_jids_size) != 1) {
	.loc 1 375 0 discriminator 1
	movq	(%rdi), %rdi	# p_args_35(D)->in_jids,
# src/sabd-enclave.c:373:     size_t in_jids_size = p_args->in_jid_count * sizeof(p_args->in_jids[0]);
	.loc 1 373 0 discriminator 1
	leaq	0(,%r12,8), %rsi	#, in_jids_size
.LVL249:
# src/sabd-enclave.c:375:         sgx_is_outside_enclave(p_args->in_jids, in_jids_size) != 1) {
	.loc 1 375 0 discriminator 1
	call	sgx_is_outside_enclave@PLT	#
.LVL250:
.LBE1350:
# src/sabd-enclave.c:385:   if (p_state->ab_jid_count != 0) {
	.loc 1 385 0 discriminator 1
	movl	8(%rbp), %edi	# p_state_34(D)->ab_jid_count,
.LBB1351:
# src/sabd-enclave.c:374:     if (p_args->in_jid_count > SIZE_MAX / sizeof(p_args->in_jids[0]) ||
	.loc 1 374 0 discriminator 1
	cmpl	$1, %eax	#, _4
	je	.L196	#,
.LVL251:
.LBE1351:
# src/sabd-enclave.c:385:   if (p_state->ab_jid_count != 0) {
	.loc 1 385 0
	testl	%edi, %edi	# _83
	je	.L154	#,
.LVL252:
	.p2align 4,,10
	.p2align 3
.L193:
.LBB1352:
# src/sabd-enclave.c:386:     uint8_t *in_ab_jids_result = malloc(p_state->ab_jid_count);
	.loc 1 386 0
	call	malloc@PLT	#
.LVL253:
.LBB1353:
# src/sabd-enclave.c:402:     for (sabd_msg_t *p_msg = p_state->msgs; p_msg != NULL;) {
	.loc 1 402 0
	movq	0(%rbp), %rbx	# p_state_34(D)->msgs, p_msg
.LVL254:
.LBE1353:
.LBE1352:
.LBB1366:
# src/sabd-enclave.c:376:       validate_args_res = SGX_ERROR_INVALID_PARAMETER;
	.loc 1 376 0
	movl	$2, %r13d	#, <retval>
.LBE1366:
.LBB1367:
# src/sabd-enclave.c:386:     uint8_t *in_ab_jids_result = malloc(p_state->ab_jid_count);
	.loc 1 386 0
	movq	%rax, %r14	#, in_ab_jids_result
.LVL255:
.LBB1360:
# src/sabd-enclave.c:402:     for (sabd_msg_t *p_msg = p_state->msgs; p_msg != NULL;) {
	.loc 1 402 0
	testq	%rbx, %rbx	# p_msg
	je	.L189	#,
.LVL256:
	.p2align 4,,10
	.p2align 3
.L163:
.LBB1354:
# src/sabd-enclave.c:417:       memset_s(p_msg, sizeof(*p_msg), 0, sizeof(*p_msg));
	.loc 1 417 0
	movq	%rbx, %rdi	# p_msg,
# src/sabd-enclave.c:416:       sabd_msg_t *p_prev_msg = p_msg->prev;
	.loc 1 416 0
	movq	48(%rbx), %r15	# p_msg_104->prev, p_prev_msg
.LVL257:
# src/sabd-enclave.c:417:       memset_s(p_msg, sizeof(*p_msg), 0, sizeof(*p_msg));
	.loc 1 417 0
	movl	$56, %ecx	#,
	xorl	%edx, %edx	#
	movl	$56, %esi	#,
	call	memset_s@PLT	#
.LVL258:
# src/sabd-enclave.c:418:       free(p_msg);
	.loc 1 418 0
	movq	%rbx, %rdi	# p_msg,
	movq	%r15, %rbx	# p_prev_msg, p_msg
.LVL259:
	call	free@PLT	#
.LVL260:
.LBE1354:
# src/sabd-enclave.c:402:     for (sabd_msg_t *p_msg = p_state->msgs; p_msg != NULL;) {
	.loc 1 402 0
	testq	%r15, %r15	# p_msg
	jne	.L163	#,
.LVL261:
.L189:
.LBE1360:
# src/sabd-enclave.c:422:     free(in_ab_jids_result);
	.loc 1 422 0
	movq	%r14, %rdi	# in_ab_jids_result,
	call	free@PLT	#
.LVL262:
.LBE1367:
# src/sabd-enclave.c:427:   size_t state_size = sizeof(sabd_state_t) + sizeof(jid_t) * p_state->max_ab_jids;
	.loc 1 427 0
	movl	12(%rbp), %r11d	# p_state_34(D)->max_ab_jids, p_state_34(D)->max_ab_jids
# src/sabd-enclave.c:428:   memset_s(p_state, state_size, 0, state_size);
	.loc 1 428 0
	movq	%rbp, %rdi	# p_state,
	xorl	%edx, %edx	#
# src/sabd-enclave.c:427:   size_t state_size = sizeof(sabd_state_t) + sizeof(jid_t) * p_state->max_ab_jids;
	.loc 1 427 0
	leaq	64(,%r11,8), %rsi	#, state_size
.LVL263:
# src/sabd-enclave.c:428:   memset_s(p_state, state_size, 0, state_size);
	.loc 1 428 0
	movq	%rsi, %rcx	# state_size,
	call	memset_s@PLT	#
.LVL264:
# src/sabd-enclave.c:429:   free(p_state);
	.loc 1 429 0
	movq	%rbp, %rdi	# p_state,
	call	free@PLT	#
.LVL265:
	jmp	.L190	#
.LVL266:
	.p2align 4,,10
	.p2align 3
.L169:
# src/sabd-enclave.c:364:     return SGX_ERROR_INVALID_STATE;
	.loc 1 364 0
	movl	$5, %r13d	#, <retval>
	jmp	.L190	#
.LVL267:
	.p2align 4,,10
	.p2align 3
.L196:
# src/sabd-enclave.c:385:   if (p_state->ab_jid_count != 0) {
	.loc 1 385 0
	testl	%edi, %edi	# _76
	jne	.L197	#,
.LVL268:
# src/sabd-enclave.c:427:   size_t state_size = sizeof(sabd_state_t) + sizeof(jid_t) * p_state->max_ab_jids;
	.loc 1 427 0
	movl	12(%rbp), %edx	# p_state_34(D)->max_ab_jids, p_state_34(D)->max_ab_jids
# src/sabd-enclave.c:428:   memset_s(p_state, state_size, 0, state_size);
	.loc 1 428 0
	movq	%rbp, %rdi	# p_state,
# src/sabd-enclave.c:384:   sgx_status_t replies_res = SGX_SUCCESS;
	.loc 1 384 0
	xorl	%r13d, %r13d	# <retval>
# src/sabd-enclave.c:427:   size_t state_size = sizeof(sabd_state_t) + sizeof(jid_t) * p_state->max_ab_jids;
	.loc 1 427 0
	leaq	64(,%rdx,8), %rsi	#, state_size
.LVL269:
# src/sabd-enclave.c:428:   memset_s(p_state, state_size, 0, state_size);
	.loc 1 428 0
	xorl	%edx, %edx	#
	movq	%rsi, %rcx	# state_size,
	call	memset_s@PLT	#
.LVL270:
# src/sabd-enclave.c:429:   free(p_state);
	.loc 1 429 0
	movq	%rbp, %rdi	# p_state,
	call	free@PLT	#
.LVL271:
	jmp	.L190	#
	.p2align 4,,10
	.p2align 3
.L197:
.LBB1368:
# src/sabd-enclave.c:386:     uint8_t *in_ab_jids_result = malloc(p_state->ab_jid_count);
	.loc 1 386 0
	call	malloc@PLT	#
.LVL272:
	movq	%rax, %r14	#, in_ab_jids_result
.LVL273:
# src/sabd-enclave.c:390:     } else if (in_ab_jids_result != NULL) {
	.loc 1 390 0
	testq	%rax, %rax	# in_ab_jids_result
	je	.L198	#,
# src/sabd-enclave.c:392:       sgx_lfence();
	.loc 1 392 0
	lfence
# src/sabd-enclave.c:394:       lookup_res = sabd_lookup_hash(p_args->in_jids, validated_in_jid_count,
	.loc 1 394 0
	movq	(%rbx), %rdi	# p_args_35(D)->in_jids,
	movq	%r12, %rsi	# _1,
# src/sabd-enclave.c:395:                                     p_state->ab_jids, p_state->ab_jid_count,
	.loc 1 395 0
	leaq	64(%rbp), %rdx	#, tmp150
# src/sabd-enclave.c:394:       lookup_res = sabd_lookup_hash(p_args->in_jids, validated_in_jid_count,
	.loc 1 394 0
	movl	8(%rbp), %ecx	# p_state_34(D)->ab_jid_count, p_state_34(D)->ab_jid_count
	movq	%rax, %r8	# in_ab_jids_result,
	call	sabd_lookup_hash	#
.LVL274:
.LBB1361:
# src/sabd-enclave.c:402:     for (sabd_msg_t *p_msg = p_state->msgs; p_msg != NULL;) {
	.loc 1 402 0
	movq	0(%rbp), %rbx	# p_state_34(D)->msgs, p_msg
.LVL275:
	movl	8(%rbp), %r12d	# p_state_34(D)->ab_jid_count, ab_jid_idx
.LVL276:
.LBE1361:
# src/sabd-enclave.c:394:       lookup_res = sabd_lookup_hash(p_args->in_jids, validated_in_jid_count,
	.loc 1 394 0
	movl	%eax, %r13d	#, <retval>
.LVL277:
.LBB1362:
# src/sabd-enclave.c:402:     for (sabd_msg_t *p_msg = p_state->msgs; p_msg != NULL;) {
	.loc 1 402 0
	testq	%rbx, %rbx	# p_msg
	je	.L189	#,
.LBE1362:
.LBE1368:
# src/sabd-enclave.c:384:   sgx_status_t replies_res = SGX_SUCCESS;
	.loc 1 384 0
	movl	$0, 44(%rsp)	#, %sfp
	testl	%eax, %eax	# <retval>
	je	.L162	#,
	jmp	.L163	#
.LVL278:
	.p2align 4,,10
	.p2align 3
.L199:
.LBB1369:
.LBB1363:
.LBB1358:
# src/sabd-enclave.c:417:       memset_s(p_msg, sizeof(*p_msg), 0, sizeof(*p_msg));
	.loc 1 417 0
	call	memset_s@PLT	#
.LVL279:
# src/sabd-enclave.c:418:       free(p_msg);
	.loc 1 418 0
	movq	%rbx, %rdi	# p_msg,
	call	free@PLT	#
.LVL280:
.LBE1358:
# src/sabd-enclave.c:402:     for (sabd_msg_t *p_msg = p_state->msgs; p_msg != NULL;) {
	.loc 1 402 0
	movl	44(%rsp), %r13d	# %sfp, <retval>
	testq	%r15, %r15	# p_msg
	je	.L167	#,
.LVL281:
	.p2align 4,,10
	.p2align 3
.L166:
	movl	%r13d, 44(%rsp)	# <retval>, %sfp
	movq	%r15, %rbx	# p_msg, p_msg
.LVL282:
.L162:
.LBB1359:
.LBB1355:
# src/sabd-enclave.c:404:         ab_jid_idx -= p_msg->ab_jid_count;
	.loc 1 404 0
	movl	40(%rbx), %esi	# p_msg_113->ab_jid_count, _10
# src/sabd-enclave.c:410:         sgx_status_t reply_res = sgxsd_enclave_server_reply(reply_buf, p_msg->from);
	.loc 1 410 0
	subq	$8, %rsp	#,
	.cfi_def_cfa_offset 120
# src/sabd-enclave.c:404:         ab_jid_idx -= p_msg->ab_jid_count;
	.loc 1 404 0
	subl	%esi, %r12d	# _10, ab_jid_idx
.LVL283:
# src/sabd-enclave.c:406:           .data = &in_ab_jids_result[ab_jid_idx],
	.loc 1 406 0
	movl	%r12d, %ecx	# ab_jid_idx, ab_jid_idx
# src/sabd-enclave.c:405:         sgxsd_msg_buf_t reply_buf = {
	.loc 1 405 0
	leaq	(%r14,%rcx), %rdi	#, tmp179
	movq	%rdi, 24(%rsp)	# tmp179, %sfp
	vmovdqa	24(%rsp), %xmm1	# %sfp, tmp181
	vpinsrd	$2, %esi, %xmm1, %xmm0	#, _10, tmp181, tmp153
	vmovaps	%xmm0, 8(%rsp)	# tmp153, %sfp
	vmovdqa	8(%rsp), %xmm2	# %sfp, tmp182
# src/sabd-enclave.c:410:         sgx_status_t reply_res = sgxsd_enclave_server_reply(reply_buf, p_msg->from);
	.loc 1 410 0
	movq	16(%rsp), %rsi	# %sfp, tmp174
# src/sabd-enclave.c:405:         sgxsd_msg_buf_t reply_buf = {
	.loc 1 405 0
	vmovaps	%xmm2, 24(%rsp)	# tmp182, %sfp
# src/sabd-enclave.c:410:         sgx_status_t reply_res = sgxsd_enclave_server_reply(reply_buf, p_msg->from);
	.loc 1 410 0
	pushq	32(%rbx)	# p_msg_113->from
	.cfi_def_cfa_offset 128
	pushq	24(%rbx)	# p_msg_113->from
	.cfi_def_cfa_offset 136
	pushq	16(%rbx)	# p_msg_113->from
	.cfi_def_cfa_offset 144
	pushq	8(%rbx)	# p_msg_113->from
	.cfi_def_cfa_offset 152
	pushq	(%rbx)	# p_msg_113->from
	.cfi_def_cfa_offset 160
	movq	48(%rsp), %rdi	# %sfp,
	call	sgxsd_enclave_server_reply@PLT	#
.LVL284:
# src/sabd-enclave.c:411:         if (replies_res == SGX_SUCCESS) {
	.loc 1 411 0
	addq	$48, %rsp	#,
	.cfi_def_cfa_offset 112
	movl	44(%rsp), %r8d	# %sfp,
.LBE1355:
# src/sabd-enclave.c:417:       memset_s(p_msg, sizeof(*p_msg), 0, sizeof(*p_msg));
	.loc 1 417 0
	xorl	%edx, %edx	#
.LBB1356:
# src/sabd-enclave.c:410:         sgx_status_t reply_res = sgxsd_enclave_server_reply(reply_buf, p_msg->from);
	.loc 1 410 0
	movl	%eax, %r13d	#, <retval>
.LBE1356:
# src/sabd-enclave.c:416:       sabd_msg_t *p_prev_msg = p_msg->prev;
	.loc 1 416 0
	movq	48(%rbx), %r15	# p_msg_113->prev, p_msg
.LVL285:
# src/sabd-enclave.c:417:       memset_s(p_msg, sizeof(*p_msg), 0, sizeof(*p_msg));
	.loc 1 417 0
	movl	$56, %ecx	#,
	movq	%rbx, %rdi	# p_msg,
	movl	$56, %esi	#,
.LBB1357:
# src/sabd-enclave.c:411:         if (replies_res == SGX_SUCCESS) {
	.loc 1 411 0
	testl	%r8d, %r8d	#
	jne	.L199	#,
.LVL286:
.LBE1357:
# src/sabd-enclave.c:417:       memset_s(p_msg, sizeof(*p_msg), 0, sizeof(*p_msg));
	.loc 1 417 0
	call	memset_s@PLT	#
.LVL287:
# src/sabd-enclave.c:418:       free(p_msg);
	.loc 1 418 0
	movq	%rbx, %rdi	# p_msg,
	call	free@PLT	#
.LVL288:
.LBE1359:
# src/sabd-enclave.c:402:     for (sabd_msg_t *p_msg = p_state->msgs; p_msg != NULL;) {
	.loc 1 402 0
	testq	%r15, %r15	# p_msg
	jne	.L166	#,
.L167:
.LBE1363:
# src/sabd-enclave.c:422:     free(in_ab_jids_result);
	.loc 1 422 0
	movq	%r14, %rdi	# in_ab_jids_result,
	call	free@PLT	#
.LVL289:
.LBE1369:
# src/sabd-enclave.c:427:   size_t state_size = sizeof(sabd_state_t) + sizeof(jid_t) * p_state->max_ab_jids;
	.loc 1 427 0
	movl	12(%rbp), %r9d	# p_state_34(D)->max_ab_jids, p_state_34(D)->max_ab_jids
# src/sabd-enclave.c:428:   memset_s(p_state, state_size, 0, state_size);
	.loc 1 428 0
	xorl	%edx, %edx	#
	movq	%rbp, %rdi	# p_state,
# src/sabd-enclave.c:427:   size_t state_size = sizeof(sabd_state_t) + sizeof(jid_t) * p_state->max_ab_jids;
	.loc 1 427 0
	leaq	64(,%r9,8), %rsi	#, state_size
.LVL290:
# src/sabd-enclave.c:428:   memset_s(p_state, state_size, 0, state_size);
	.loc 1 428 0
	movq	%rsi, %rcx	# state_size,
	call	memset_s@PLT	#
.LVL291:
# src/sabd-enclave.c:429:   free(p_state);
	.loc 1 429 0
	movq	%rbp, %rdi	# p_state,
# src/sabd-enclave.c:432:       return SGX_ERROR_UNEXPECTED;
	.loc 1 432 0
	movl	$1, %ebp	#, tmp175
.LVL292:
# src/sabd-enclave.c:429:   free(p_state);
	.loc 1 429 0
	call	free@PLT	#
.LVL293:
# src/sabd-enclave.c:432:       return SGX_ERROR_UNEXPECTED;
	.loc 1 432 0
	cmpl	$2, %r13d	#, <retval>
.LVL294:
	cmove	%ebp, %r13d	# <retval>,, tmp175, <retval>
.LVL295:
	jmp	.L190	#
.LVL296:
	.p2align 4,,10
	.p2align 3
.L198:
.LBB1370:
.LBB1364:
# src/sabd-enclave.c:402:     for (sabd_msg_t *p_msg = p_state->msgs; p_msg != NULL;) {
	.loc 1 402 0
	movq	0(%rbp), %rbx	# p_state_34(D)->msgs, p_msg
.LVL297:
.LBE1364:
# src/sabd-enclave.c:398:       lookup_res = SGX_ERROR_OUT_OF_MEMORY;
	.loc 1 398 0
	movl	$3, %r13d	#, <retval>
.LBB1365:
# src/sabd-enclave.c:402:     for (sabd_msg_t *p_msg = p_state->msgs; p_msg != NULL;) {
	.loc 1 402 0
	testq	%rbx, %rbx	# p_msg
	jne	.L163	#,
	jmp	.L189	#
.LBE1365:
.LBE1370:
	.cfi_endproc
.LFE5018:
	.size	sgxsd_enclave_server_terminate, .-sgxsd_enclave_server_terminate
	.section	.rodata.cst32,"aM",@progbits,32
	.align 32
.LC0:
	.quad	-8
	.quad	-7
	.quad	-6
	.quad	-5
	.align 32
.LC1:
	.quad	-12
	.quad	-11
	.quad	-10
	.quad	-9
	.align 32
.LC2:
	.quad	-4
	.quad	-3
	.quad	-2
	.quad	-1
	.align 32
.LC3:
	.long	4294967284
	.long	-1
	.long	4294967285
	.long	-1
	.long	4294967286
	.long	-1
	.long	4294967287
	.long	-1
	.align 32
.LC4:
	.long	4294967288
	.long	-1
	.long	4294967289
	.long	-1
	.long	4294967290
	.long	-1
	.long	4294967291
	.long	-1
	.align 32
.LC5:
	.long	4294967292
	.long	-1
	.long	4294967293
	.long	-1
	.long	4294967294
	.long	-1
	.long	4294967295
	.long	-1
	.align 32
.LC6:
	.long	4294967295
	.long	-1
	.long	4294967295
	.long	-1
	.long	4294967295
	.long	-1
	.long	4294967295
	.long	-1
	.text
.Letext0:
	.file 8 "linux-sgx-sgx_2.1.3-g75dd558bdaff/common/inc/tlibc/sys/_types.h"
	.file 9 "linux-sgx-sgx_2.1.3-g75dd558bdaff/common/inc/tlibc/stdlib.h"
	.file 10 "linux-sgx-sgx_2.1.3-g75dd558bdaff/common/inc/tlibc/sys/stdint.h"
	.file 11 "include/sabd.h"
	.file 12 "linux-sgx-sgx_2.1.3-g75dd558bdaff/common/inc/sgx_error.h"
	.file 13 "include/sgxsd.h"
	.file 14 "include/sgxsd-enclave.h"
	.file 15 "linux-sgx-sgx_2.1.3-g75dd558bdaff/common/inc/sgx_trts.h"
	.file 16 "linux-sgx-sgx_2.1.3-g75dd558bdaff/common/inc/tlibc/string.h"
	.file 17 "<built-in>"
	.section	.note.GNU-stack,"",@progbits
